
bomb:     file format elf32-i386


Disassembly of section .init:

000008d0 <_init>:
 8d0:	53                   	push   %ebx
 8d1:	83 ec 08             	sub    $0x8,%esp
 8d4:	e8 77 02 00 00       	call   b50 <__x86.get_pc_thunk.bx>
 8d9:	81 c3 7f 46 00 00    	add    $0x467f,%ebx
 8df:	8b 83 94 00 00 00    	mov    0x94(%ebx),%eax
 8e5:	85 c0                	test   %eax,%eax
 8e7:	74 05                	je     8ee <_init+0x1e>
 8e9:	e8 1a 02 00 00       	call   b08 <__gmon_start__@plt>
 8ee:	83 c4 08             	add    $0x8,%esp
 8f1:	5b                   	pop    %ebx
 8f2:	c3                   	ret    

Disassembly of section .plt:

00000900 <.plt>:
 900:	ff b3 04 00 00 00    	pushl  0x4(%ebx)
 906:	ff a3 08 00 00 00    	jmp    *0x8(%ebx)
 90c:	00 00                	add    %al,(%eax)
	...

00000910 <strcmp@plt>:
 910:	ff a3 0c 00 00 00    	jmp    *0xc(%ebx)
 916:	68 00 00 00 00       	push   $0x0
 91b:	e9 e0 ff ff ff       	jmp    900 <.plt>

00000920 <read@plt>:
 920:	ff a3 10 00 00 00    	jmp    *0x10(%ebx)
 926:	68 08 00 00 00       	push   $0x8
 92b:	e9 d0 ff ff ff       	jmp    900 <.plt>

00000930 <printf@plt>:
 930:	ff a3 14 00 00 00    	jmp    *0x14(%ebx)
 936:	68 10 00 00 00       	push   $0x10
 93b:	e9 c0 ff ff ff       	jmp    900 <.plt>

00000940 <fflush@plt>:
 940:	ff a3 18 00 00 00    	jmp    *0x18(%ebx)
 946:	68 18 00 00 00       	push   $0x18
 94b:	e9 b0 ff ff ff       	jmp    900 <.plt>

00000950 <memcpy@plt>:
 950:	ff a3 1c 00 00 00    	jmp    *0x1c(%ebx)
 956:	68 20 00 00 00       	push   $0x20
 95b:	e9 a0 ff ff ff       	jmp    900 <.plt>

00000960 <bzero@plt>:
 960:	ff a3 20 00 00 00    	jmp    *0x20(%ebx)
 966:	68 28 00 00 00       	push   $0x28
 96b:	e9 90 ff ff ff       	jmp    900 <.plt>

00000970 <fgets@plt>:
 970:	ff a3 24 00 00 00    	jmp    *0x24(%ebx)
 976:	68 30 00 00 00       	push   $0x30
 97b:	e9 80 ff ff ff       	jmp    900 <.plt>

00000980 <signal@plt>:
 980:	ff a3 28 00 00 00    	jmp    *0x28(%ebx)
 986:	68 38 00 00 00       	push   $0x38
 98b:	e9 70 ff ff ff       	jmp    900 <.plt>

00000990 <sleep@plt>:
 990:	ff a3 2c 00 00 00    	jmp    *0x2c(%ebx)
 996:	68 40 00 00 00       	push   $0x40
 99b:	e9 60 ff ff ff       	jmp    900 <.plt>

000009a0 <alarm@plt>:
 9a0:	ff a3 30 00 00 00    	jmp    *0x30(%ebx)
 9a6:	68 48 00 00 00       	push   $0x48
 9ab:	e9 50 ff ff ff       	jmp    900 <.plt>

000009b0 <__stack_chk_fail@plt>:
 9b0:	ff a3 34 00 00 00    	jmp    *0x34(%ebx)
 9b6:	68 50 00 00 00       	push   $0x50
 9bb:	e9 40 ff ff ff       	jmp    900 <.plt>

000009c0 <htons@plt>:
 9c0:	ff a3 38 00 00 00    	jmp    *0x38(%ebx)
 9c6:	68 58 00 00 00       	push   $0x58
 9cb:	e9 30 ff ff ff       	jmp    900 <.plt>

000009d0 <bcopy@plt>:
 9d0:	ff a3 3c 00 00 00    	jmp    *0x3c(%ebx)
 9d6:	68 60 00 00 00       	push   $0x60
 9db:	e9 20 ff ff ff       	jmp    900 <.plt>

000009e0 <strcpy@plt>:
 9e0:	ff a3 40 00 00 00    	jmp    *0x40(%ebx)
 9e6:	68 68 00 00 00       	push   $0x68
 9eb:	e9 10 ff ff ff       	jmp    900 <.plt>

000009f0 <getenv@plt>:
 9f0:	ff a3 44 00 00 00    	jmp    *0x44(%ebx)
 9f6:	68 70 00 00 00       	push   $0x70
 9fb:	e9 00 ff ff ff       	jmp    900 <.plt>

00000a00 <puts@plt>:
 a00:	ff a3 48 00 00 00    	jmp    *0x48(%ebx)
 a06:	68 78 00 00 00       	push   $0x78
 a0b:	e9 f0 fe ff ff       	jmp    900 <.plt>

00000a10 <exit@plt>:
 a10:	ff a3 4c 00 00 00    	jmp    *0x4c(%ebx)
 a16:	68 80 00 00 00       	push   $0x80
 a1b:	e9 e0 fe ff ff       	jmp    900 <.plt>

00000a20 <strlen@plt>:
 a20:	ff a3 50 00 00 00    	jmp    *0x50(%ebx)
 a26:	68 88 00 00 00       	push   $0x88
 a2b:	e9 d0 fe ff ff       	jmp    900 <.plt>

00000a30 <__libc_start_main@plt>:
 a30:	ff a3 54 00 00 00    	jmp    *0x54(%ebx)
 a36:	68 90 00 00 00       	push   $0x90
 a3b:	e9 c0 fe ff ff       	jmp    900 <.plt>

00000a40 <fprintf@plt>:
 a40:	ff a3 58 00 00 00    	jmp    *0x58(%ebx)
 a46:	68 98 00 00 00       	push   $0x98
 a4b:	e9 b0 fe ff ff       	jmp    900 <.plt>

00000a50 <write@plt>:
 a50:	ff a3 5c 00 00 00    	jmp    *0x5c(%ebx)
 a56:	68 a0 00 00 00       	push   $0xa0
 a5b:	e9 a0 fe ff ff       	jmp    900 <.plt>

00000a60 <__isoc99_sscanf@plt>:
 a60:	ff a3 60 00 00 00    	jmp    *0x60(%ebx)
 a66:	68 a8 00 00 00       	push   $0xa8
 a6b:	e9 90 fe ff ff       	jmp    900 <.plt>

00000a70 <fopen@plt>:
 a70:	ff a3 64 00 00 00    	jmp    *0x64(%ebx)
 a76:	68 b0 00 00 00       	push   $0xb0
 a7b:	e9 80 fe ff ff       	jmp    900 <.plt>

00000a80 <__errno_location@plt>:
 a80:	ff a3 68 00 00 00    	jmp    *0x68(%ebx)
 a86:	68 b8 00 00 00       	push   $0xb8
 a8b:	e9 70 fe ff ff       	jmp    900 <.plt>

00000a90 <sprintf@plt>:
 a90:	ff a3 6c 00 00 00    	jmp    *0x6c(%ebx)
 a96:	68 c0 00 00 00       	push   $0xc0
 a9b:	e9 60 fe ff ff       	jmp    900 <.plt>

00000aa0 <atoi@plt>:
 aa0:	ff a3 70 00 00 00    	jmp    *0x70(%ebx)
 aa6:	68 c8 00 00 00       	push   $0xc8
 aab:	e9 50 fe ff ff       	jmp    900 <.plt>

00000ab0 <socket@plt>:
 ab0:	ff a3 74 00 00 00    	jmp    *0x74(%ebx)
 ab6:	68 d0 00 00 00       	push   $0xd0
 abb:	e9 40 fe ff ff       	jmp    900 <.plt>

00000ac0 <gethostbyname@plt>:
 ac0:	ff a3 78 00 00 00    	jmp    *0x78(%ebx)
 ac6:	68 d8 00 00 00       	push   $0xd8
 acb:	e9 30 fe ff ff       	jmp    900 <.plt>

00000ad0 <connect@plt>:
 ad0:	ff a3 7c 00 00 00    	jmp    *0x7c(%ebx)
 ad6:	68 e0 00 00 00       	push   $0xe0
 adb:	e9 20 fe ff ff       	jmp    900 <.plt>

00000ae0 <close@plt>:
 ae0:	ff a3 80 00 00 00    	jmp    *0x80(%ebx)
 ae6:	68 e8 00 00 00       	push   $0xe8
 aeb:	e9 10 fe ff ff       	jmp    900 <.plt>

00000af0 <__ctype_b_loc@plt>:
 af0:	ff a3 84 00 00 00    	jmp    *0x84(%ebx)
 af6:	68 f0 00 00 00       	push   $0xf0
 afb:	e9 00 fe ff ff       	jmp    900 <.plt>

Disassembly of section .plt.got:

00000b00 <__cxa_finalize@plt>:
 b00:	ff a3 90 00 00 00    	jmp    *0x90(%ebx)
 b06:	66 90                	xchg   %ax,%ax

00000b08 <__gmon_start__@plt>:
 b08:	ff a3 94 00 00 00    	jmp    *0x94(%ebx)
 b0e:	66 90                	xchg   %ax,%ax

Disassembly of section .text:

00000b10 <_start>:
     b10:	31 ed                	xor    %ebp,%ebp
     b12:	5e                   	pop    %esi
     b13:	89 e1                	mov    %esp,%ecx
     b15:	83 e4 f0             	and    $0xfffffff0,%esp
     b18:	50                   	push   %eax
     b19:	54                   	push   %esp
     b1a:	52                   	push   %edx
     b1b:	e8 22 00 00 00       	call   b42 <_start+0x32>
     b20:	81 c3 38 44 00 00    	add    $0x4438,%ebx
     b26:	8d 83 e8 d8 ff ff    	lea    -0x2718(%ebx),%eax
     b2c:	50                   	push   %eax
     b2d:	8d 83 88 d8 ff ff    	lea    -0x2778(%ebx),%eax
     b33:	50                   	push   %eax
     b34:	51                   	push   %ecx
     b35:	56                   	push   %esi
     b36:	ff b3 a0 00 00 00    	pushl  0xa0(%ebx)
     b3c:	e8 ef fe ff ff       	call   a30 <__libc_start_main@plt>
     b41:	f4                   	hlt    
     b42:	8b 1c 24             	mov    (%esp),%ebx
     b45:	c3                   	ret    
     b46:	66 90                	xchg   %ax,%ax
     b48:	66 90                	xchg   %ax,%ax
     b4a:	66 90                	xchg   %ax,%ax
     b4c:	66 90                	xchg   %ax,%ax
     b4e:	66 90                	xchg   %ax,%ax

00000b50 <__x86.get_pc_thunk.bx>:
     b50:	8b 1c 24             	mov    (%esp),%ebx
     b53:	c3                   	ret    
     b54:	66 90                	xchg   %ax,%ax
     b56:	66 90                	xchg   %ax,%ax
     b58:	66 90                	xchg   %ax,%ax
     b5a:	66 90                	xchg   %ax,%ax
     b5c:	66 90                	xchg   %ax,%ax
     b5e:	66 90                	xchg   %ax,%ax

00000b60 <deregister_tm_clones>:
     b60:	e8 e4 00 00 00       	call   c49 <__x86.get_pc_thunk.dx>
     b65:	81 c2 f3 43 00 00    	add    $0x43f3,%edx
     b6b:	8d 8a c8 03 00 00    	lea    0x3c8(%edx),%ecx
     b71:	8d 82 c8 03 00 00    	lea    0x3c8(%edx),%eax
     b77:	39 c8                	cmp    %ecx,%eax
     b79:	74 1d                	je     b98 <deregister_tm_clones+0x38>
     b7b:	8b 82 88 00 00 00    	mov    0x88(%edx),%eax
     b81:	85 c0                	test   %eax,%eax
     b83:	74 13                	je     b98 <deregister_tm_clones+0x38>
     b85:	55                   	push   %ebp
     b86:	89 e5                	mov    %esp,%ebp
     b88:	83 ec 14             	sub    $0x14,%esp
     b8b:	51                   	push   %ecx
     b8c:	ff d0                	call   *%eax
     b8e:	83 c4 10             	add    $0x10,%esp
     b91:	c9                   	leave  
     b92:	c3                   	ret    
     b93:	90                   	nop
     b94:	8d 74 26 00          	lea    0x0(%esi,%eiz,1),%esi
     b98:	f3 c3                	repz ret 
     b9a:	8d b6 00 00 00 00    	lea    0x0(%esi),%esi

00000ba0 <register_tm_clones>:
     ba0:	e8 a4 00 00 00       	call   c49 <__x86.get_pc_thunk.dx>
     ba5:	81 c2 b3 43 00 00    	add    $0x43b3,%edx
     bab:	55                   	push   %ebp
     bac:	8d 8a c8 03 00 00    	lea    0x3c8(%edx),%ecx
     bb2:	8d 82 c8 03 00 00    	lea    0x3c8(%edx),%eax
     bb8:	29 c8                	sub    %ecx,%eax
     bba:	89 e5                	mov    %esp,%ebp
     bbc:	53                   	push   %ebx
     bbd:	c1 f8 02             	sar    $0x2,%eax
     bc0:	89 c3                	mov    %eax,%ebx
     bc2:	83 ec 04             	sub    $0x4,%esp
     bc5:	c1 eb 1f             	shr    $0x1f,%ebx
     bc8:	01 d8                	add    %ebx,%eax
     bca:	d1 f8                	sar    %eax
     bcc:	74 14                	je     be2 <register_tm_clones+0x42>
     bce:	8b 92 a4 00 00 00    	mov    0xa4(%edx),%edx
     bd4:	85 d2                	test   %edx,%edx
     bd6:	74 0a                	je     be2 <register_tm_clones+0x42>
     bd8:	83 ec 08             	sub    $0x8,%esp
     bdb:	50                   	push   %eax
     bdc:	51                   	push   %ecx
     bdd:	ff d2                	call   *%edx
     bdf:	83 c4 10             	add    $0x10,%esp
     be2:	8b 5d fc             	mov    -0x4(%ebp),%ebx
     be5:	c9                   	leave  
     be6:	c3                   	ret    
     be7:	89 f6                	mov    %esi,%esi
     be9:	8d bc 27 00 00 00 00 	lea    0x0(%edi,%eiz,1),%edi

00000bf0 <__do_global_dtors_aux>:
     bf0:	55                   	push   %ebp
     bf1:	89 e5                	mov    %esp,%ebp
     bf3:	53                   	push   %ebx
     bf4:	e8 57 ff ff ff       	call   b50 <__x86.get_pc_thunk.bx>
     bf9:	81 c3 5f 43 00 00    	add    $0x435f,%ebx
     bff:	83 ec 04             	sub    $0x4,%esp
     c02:	80 bb c8 03 00 00 00 	cmpb   $0x0,0x3c8(%ebx)
     c09:	75 27                	jne    c32 <__do_global_dtors_aux+0x42>
     c0b:	8b 83 90 00 00 00    	mov    0x90(%ebx),%eax
     c11:	85 c0                	test   %eax,%eax
     c13:	74 11                	je     c26 <__do_global_dtors_aux+0x36>
     c15:	83 ec 0c             	sub    $0xc,%esp
     c18:	ff b3 ac 00 00 00    	pushl  0xac(%ebx)
     c1e:	e8 dd fe ff ff       	call   b00 <__cxa_finalize@plt>
     c23:	83 c4 10             	add    $0x10,%esp
     c26:	e8 35 ff ff ff       	call   b60 <deregister_tm_clones>
     c2b:	c6 83 c8 03 00 00 01 	movb   $0x1,0x3c8(%ebx)
     c32:	8b 5d fc             	mov    -0x4(%ebp),%ebx
     c35:	c9                   	leave  
     c36:	c3                   	ret    
     c37:	89 f6                	mov    %esi,%esi
     c39:	8d bc 27 00 00 00 00 	lea    0x0(%edi,%eiz,1),%edi

00000c40 <frame_dummy>:
     c40:	55                   	push   %ebp
     c41:	89 e5                	mov    %esp,%ebp
     c43:	5d                   	pop    %ebp
     c44:	e9 57 ff ff ff       	jmp    ba0 <register_tm_clones>

00000c49 <__x86.get_pc_thunk.dx>:
     c49:	8b 14 24             	mov    (%esp),%edx
     c4c:	c3                   	ret    

00000c4d <main>:
     c4d:	8d 4c 24 04          	lea    0x4(%esp),%ecx
     c51:	83 e4 f0             	and    $0xfffffff0,%esp
     c54:	ff 71 fc             	pushl  -0x4(%ecx)
     c57:	55                   	push   %ebp
     c58:	89 e5                	mov    %esp,%ebp
     c5a:	56                   	push   %esi
     c5b:	53                   	push   %ebx
     c5c:	51                   	push   %ecx
     c5d:	83 ec 1c             	sub    $0x1c,%esp
     c60:	e8 eb fe ff ff       	call   b50 <__x86.get_pc_thunk.bx>
     c65:	81 c3 f3 42 00 00    	add    $0x42f3,%ebx
     c6b:	89 ce                	mov    %ecx,%esi
     c6d:	83 3e 01             	cmpl   $0x1,(%esi)
     c70:	75 15                	jne    c87 <main+0x3a>
     c72:	8b 83 98 00 00 00    	mov    0x98(%ebx),%eax
     c78:	8b 10                	mov    (%eax),%edx
     c7a:	8d 83 d0 03 00 00    	lea    0x3d0(%ebx),%eax
     c80:	89 10                	mov    %edx,(%eax)
     c82:	e9 83 00 00 00       	jmp    d0a <main+0xbd>
     c87:	83 3e 02             	cmpl   $0x2,(%esi)
     c8a:	75 5c                	jne    ce8 <main+0x9b>
     c8c:	8b 46 04             	mov    0x4(%esi),%eax
     c8f:	83 c0 04             	add    $0x4,%eax
     c92:	8b 00                	mov    (%eax),%eax
     c94:	83 ec 08             	sub    $0x8,%esp
     c97:	8d 93 28 d9 ff ff    	lea    -0x26d8(%ebx),%edx
     c9d:	52                   	push   %edx
     c9e:	50                   	push   %eax
     c9f:	e8 cc fd ff ff       	call   a70 <fopen@plt>
     ca4:	83 c4 10             	add    $0x10,%esp
     ca7:	89 c2                	mov    %eax,%edx
     ca9:	8d 83 d0 03 00 00    	lea    0x3d0(%ebx),%eax
     caf:	89 10                	mov    %edx,(%eax)
     cb1:	8d 83 d0 03 00 00    	lea    0x3d0(%ebx),%eax
     cb7:	8b 00                	mov    (%eax),%eax
     cb9:	85 c0                	test   %eax,%eax
     cbb:	75 4d                	jne    d0a <main+0xbd>
     cbd:	8b 46 04             	mov    0x4(%esi),%eax
     cc0:	83 c0 04             	add    $0x4,%eax
     cc3:	8b 10                	mov    (%eax),%edx
     cc5:	8b 46 04             	mov    0x4(%esi),%eax
     cc8:	8b 00                	mov    (%eax),%eax
     cca:	83 ec 04             	sub    $0x4,%esp
     ccd:	52                   	push   %edx
     cce:	50                   	push   %eax
     ccf:	8d 83 2a d9 ff ff    	lea    -0x26d6(%ebx),%eax
     cd5:	50                   	push   %eax
     cd6:	e8 55 fc ff ff       	call   930 <printf@plt>
     cdb:	83 c4 10             	add    $0x10,%esp
     cde:	83 ec 0c             	sub    $0xc,%esp
     ce1:	6a 08                	push   $0x8
     ce3:	e8 28 fd ff ff       	call   a10 <exit@plt>
     ce8:	8b 46 04             	mov    0x4(%esi),%eax
     ceb:	8b 00                	mov    (%eax),%eax
     ced:	83 ec 08             	sub    $0x8,%esp
     cf0:	50                   	push   %eax
     cf1:	8d 83 47 d9 ff ff    	lea    -0x26b9(%ebx),%eax
     cf7:	50                   	push   %eax
     cf8:	e8 33 fc ff ff       	call   930 <printf@plt>
     cfd:	83 c4 10             	add    $0x10,%esp
     d00:	83 ec 0c             	sub    $0xc,%esp
     d03:	6a 08                	push   $0x8
     d05:	e8 06 fd ff ff       	call   a10 <exit@plt>
     d0a:	e8 a1 08 00 00       	call   15b0 <initialize_bomb>
     d0f:	83 ec 0c             	sub    $0xc,%esp
     d12:	8d 83 64 d9 ff ff    	lea    -0x269c(%ebx),%eax
     d18:	50                   	push   %eax
     d19:	e8 e2 fc ff ff       	call   a00 <puts@plt>
     d1e:	83 c4 10             	add    $0x10,%esp
     d21:	83 ec 0c             	sub    $0xc,%esp
     d24:	8d 83 a0 d9 ff ff    	lea    -0x2660(%ebx),%eax
     d2a:	50                   	push   %eax
     d2b:	e8 d0 fc ff ff       	call   a00 <puts@plt>
     d30:	83 c4 10             	add    $0x10,%esp
     d33:	e8 72 09 00 00       	call   16aa <read_line>
     d38:	89 45 e4             	mov    %eax,-0x1c(%ebp)
     d3b:	83 ec 0c             	sub    $0xc,%esp
     d3e:	ff 75 e4             	pushl  -0x1c(%ebp)
     d41:	e8 f9 00 00 00       	call   e3f <phase_1>
     d46:	83 c4 10             	add    $0x10,%esp
     d49:	e8 16 0b 00 00       	call   1864 <phase_defused>
     d4e:	83 ec 0c             	sub    $0xc,%esp
     d51:	8d 83 cc d9 ff ff    	lea    -0x2634(%ebx),%eax
     d57:	50                   	push   %eax
     d58:	e8 a3 fc ff ff       	call   a00 <puts@plt>
     d5d:	83 c4 10             	add    $0x10,%esp
     d60:	e8 45 09 00 00       	call   16aa <read_line>
     d65:	89 45 e4             	mov    %eax,-0x1c(%ebp)
     d68:	83 ec 0c             	sub    $0xc,%esp
     d6b:	ff 75 e4             	pushl  -0x1c(%ebp)
     d6e:	e8 02 01 00 00       	call   e75 <phase_2>
     d73:	83 c4 10             	add    $0x10,%esp
     d76:	e8 e9 0a 00 00       	call   1864 <phase_defused>
     d7b:	83 ec 0c             	sub    $0xc,%esp
     d7e:	8d 83 f5 d9 ff ff    	lea    -0x260b(%ebx),%eax
     d84:	50                   	push   %eax
     d85:	e8 76 fc ff ff       	call   a00 <puts@plt>
     d8a:	83 c4 10             	add    $0x10,%esp
     d8d:	e8 18 09 00 00       	call   16aa <read_line>
     d92:	89 45 e4             	mov    %eax,-0x1c(%ebp)
     d95:	83 ec 0c             	sub    $0xc,%esp
     d98:	ff 75 e4             	pushl  -0x1c(%ebp)
     d9b:	e8 6e 01 00 00       	call   f0e <phase_3>
     da0:	83 c4 10             	add    $0x10,%esp
     da3:	e8 bc 0a 00 00       	call   1864 <phase_defused>
     da8:	83 ec 0c             	sub    $0xc,%esp
     dab:	8d 83 13 da ff ff    	lea    -0x25ed(%ebx),%eax
     db1:	50                   	push   %eax
     db2:	e8 49 fc ff ff       	call   a00 <puts@plt>
     db7:	83 c4 10             	add    $0x10,%esp
     dba:	e8 eb 08 00 00       	call   16aa <read_line>
     dbf:	89 45 e4             	mov    %eax,-0x1c(%ebp)
     dc2:	83 ec 0c             	sub    $0xc,%esp
     dc5:	ff 75 e4             	pushl  -0x1c(%ebp)
     dc8:	e8 7d 02 00 00       	call   104a <phase_4>
     dcd:	83 c4 10             	add    $0x10,%esp
     dd0:	e8 8f 0a 00 00       	call   1864 <phase_defused>
     dd5:	83 ec 0c             	sub    $0xc,%esp
     dd8:	8d 83 24 da ff ff    	lea    -0x25dc(%ebx),%eax
     dde:	50                   	push   %eax
     ddf:	e8 1c fc ff ff       	call   a00 <puts@plt>
     de4:	83 c4 10             	add    $0x10,%esp
     de7:	e8 be 08 00 00       	call   16aa <read_line>
     dec:	89 45 e4             	mov    %eax,-0x1c(%ebp)
     def:	83 ec 0c             	sub    $0xc,%esp
     df2:	ff 75 e4             	pushl  -0x1c(%ebp)
     df5:	e8 eb 02 00 00       	call   10e5 <phase_5>
     dfa:	83 c4 10             	add    $0x10,%esp
     dfd:	e8 62 0a 00 00       	call   1864 <phase_defused>
     e02:	83 ec 0c             	sub    $0xc,%esp
     e05:	8d 83 48 da ff ff    	lea    -0x25b8(%ebx),%eax
     e0b:	50                   	push   %eax
     e0c:	e8 ef fb ff ff       	call   a00 <puts@plt>
     e11:	83 c4 10             	add    $0x10,%esp
     e14:	e8 91 08 00 00       	call   16aa <read_line>
     e19:	89 45 e4             	mov    %eax,-0x1c(%ebp)
     e1c:	83 ec 0c             	sub    $0xc,%esp
     e1f:	ff 75 e4             	pushl  -0x1c(%ebp)
     e22:	e8 6d 03 00 00       	call   1194 <phase_6>
     e27:	83 c4 10             	add    $0x10,%esp
     e2a:	e8 35 0a 00 00       	call   1864 <phase_defused>
     e2f:	b8 00 00 00 00       	mov    $0x0,%eax
     e34:	8d 65 f4             	lea    -0xc(%ebp),%esp
     e37:	59                   	pop    %ecx
     e38:	5b                   	pop    %ebx
     e39:	5e                   	pop    %esi
     e3a:	5d                   	pop    %ebp
     e3b:	8d 61 fc             	lea    -0x4(%ecx),%esp
     e3e:	c3                   	ret    

00000e3f <phase_1>:
     e3f:	55                   	push   %ebp
     e40:	89 e5                	mov    %esp,%ebp
     e42:	53                   	push   %ebx
     e43:	83 ec 04             	sub    $0x4,%esp
     e46:	e8 05 fd ff ff       	call   b50 <__x86.get_pc_thunk.bx>
     e4b:	81 c3 0d 41 00 00    	add    $0x410d,%ebx
     e51:	83 ec 08             	sub    $0x8,%esp
     e54:	8d 83 68 da ff ff    	lea    -0x2598(%ebx),%eax
     e5a:	50                   	push   %eax
     e5b:	ff 75 08             	pushl  0x8(%ebp)
     e5e:	e8 d8 06 00 00       	call   153b <strings_not_equal>
     e63:	83 c4 10             	add    $0x10,%esp
     e66:	85 c0                	test   %eax,%eax
     e68:	74 05                	je     e6f <phase_1+0x30>
     e6a:	e8 b5 09 00 00       	call   1824 <explode_bomb>
     e6f:	90                   	nop
     e70:	8b 5d fc             	mov    -0x4(%ebp),%ebx
     e73:	c9                   	leave  
     e74:	c3                   	ret    

00000e75 <phase_2>:
     e75:	55                   	push   %ebp
     e76:	89 e5                	mov    %esp,%ebp
     e78:	53                   	push   %ebx
     e79:	83 ec 34             	sub    $0x34,%esp
     e7c:	e8 cf fc ff ff       	call   b50 <__x86.get_pc_thunk.bx>
     e81:	81 c3 d7 40 00 00    	add    $0x40d7,%ebx
     e87:	8b 45 08             	mov    0x8(%ebp),%eax
     e8a:	89 45 d4             	mov    %eax,-0x2c(%ebp)
     e8d:	65 a1 14 00 00 00    	mov    %gs:0x14,%eax
     e93:	89 45 f4             	mov    %eax,-0xc(%ebp)
     e96:	31 c0                	xor    %eax,%eax
     e98:	83 ec 08             	sub    $0x8,%esp
     e9b:	8d 45 dc             	lea    -0x24(%ebp),%eax
     e9e:	50                   	push   %eax
     e9f:	ff 75 d4             	pushl  -0x2c(%ebp)
     ea2:	e8 fa 05 00 00       	call   14a1 <read_six_numbers>
     ea7:	83 c4 10             	add    $0x10,%esp
     eaa:	8b 45 dc             	mov    -0x24(%ebp),%eax
     ead:	85 c0                	test   %eax,%eax
     eaf:	75 08                	jne    eb9 <phase_2+0x44>
     eb1:	8b 45 e0             	mov    -0x20(%ebp),%eax
     eb4:	83 f8 01             	cmp    $0x1,%eax
     eb7:	74 05                	je     ebe <phase_2+0x49>
     eb9:	e8 66 09 00 00       	call   1824 <explode_bomb>
     ebe:	c7 45 d8 02 00 00 00 	movl   $0x2,-0x28(%ebp)
     ec5:	eb 2a                	jmp    ef1 <phase_2+0x7c>
     ec7:	8b 45 d8             	mov    -0x28(%ebp),%eax
     eca:	8b 44 85 dc          	mov    -0x24(%ebp,%eax,4),%eax
     ece:	8b 55 d8             	mov    -0x28(%ebp),%edx
     ed1:	83 ea 02             	sub    $0x2,%edx
     ed4:	8b 4c 95 dc          	mov    -0x24(%ebp,%edx,4),%ecx
     ed8:	8b 55 d8             	mov    -0x28(%ebp),%edx
     edb:	83 ea 01             	sub    $0x1,%edx
     ede:	8b 54 95 dc          	mov    -0x24(%ebp,%edx,4),%edx
     ee2:	01 ca                	add    %ecx,%edx
     ee4:	39 d0                	cmp    %edx,%eax
     ee6:	74 05                	je     eed <phase_2+0x78>
     ee8:	e8 37 09 00 00       	call   1824 <explode_bomb>
     eed:	83 45 d8 01          	addl   $0x1,-0x28(%ebp)
     ef1:	83 7d d8 05          	cmpl   $0x5,-0x28(%ebp)
     ef5:	7e d0                	jle    ec7 <phase_2+0x52>
     ef7:	90                   	nop
     ef8:	8b 45 f4             	mov    -0xc(%ebp),%eax
     efb:	65 33 05 14 00 00 00 	xor    %gs:0x14,%eax
     f02:	74 05                	je     f09 <phase_2+0x94>
     f04:	e8 47 19 00 00       	call   2850 <__stack_chk_fail_local>
     f09:	8b 5d fc             	mov    -0x4(%ebp),%ebx
     f0c:	c9                   	leave  
     f0d:	c3                   	ret    

00000f0e <phase_3>:
     f0e:	55                   	push   %ebp
     f0f:	89 e5                	mov    %esp,%ebp
     f11:	53                   	push   %ebx
     f12:	83 ec 34             	sub    $0x34,%esp
     f15:	e8 36 fc ff ff       	call   b50 <__x86.get_pc_thunk.bx>
     f1a:	81 c3 3e 40 00 00    	add    $0x403e,%ebx
     f20:	8b 45 08             	mov    0x8(%ebp),%eax
     f23:	89 45 d4             	mov    %eax,-0x2c(%ebp)
     f26:	65 a1 14 00 00 00    	mov    %gs:0x14,%eax
     f2c:	89 45 f4             	mov    %eax,-0xc(%ebp)
     f2f:	31 c0                	xor    %eax,%eax
     f31:	c7 45 ec 00 00 00 00 	movl   $0x0,-0x14(%ebp)
     f38:	c7 45 f0 00 00 00 00 	movl   $0x0,-0x10(%ebp)
     f3f:	8d 45 e8             	lea    -0x18(%ebp),%eax
     f42:	50                   	push   %eax
     f43:	8d 45 e4             	lea    -0x1c(%ebp),%eax
     f46:	50                   	push   %eax
     f47:	8d 83 95 da ff ff    	lea    -0x256b(%ebx),%eax
     f4d:	50                   	push   %eax
     f4e:	ff 75 d4             	pushl  -0x2c(%ebp)
     f51:	e8 0a fb ff ff       	call   a60 <__isoc99_sscanf@plt>
     f56:	83 c4 10             	add    $0x10,%esp
     f59:	89 45 f0             	mov    %eax,-0x10(%ebp)
     f5c:	83 7d f0 01          	cmpl   $0x1,-0x10(%ebp)
     f60:	7f 05                	jg     f67 <phase_3+0x59>
     f62:	e8 bd 08 00 00       	call   1824 <explode_bomb>
     f67:	8b 45 e4             	mov    -0x1c(%ebp),%eax
     f6a:	83 f8 07             	cmp    $0x7,%eax
     f6d:	77 48                	ja     fb7 <.L22+0x9>
     f6f:	c1 e0 02             	shl    $0x2,%eax
     f72:	8b 84 18 9c da ff ff 	mov    -0x2564(%eax,%ebx,1),%eax
     f79:	01 d8                	add    %ebx,%eax
     f7b:	ff e0                	jmp    *%eax

00000f7d <.L14>:
     f7d:	81 45 ec 42 02 00 00 	addl   $0x242,-0x14(%ebp)

00000f84 <.L16>:
     f84:	81 6d ec 69 02 00 00 	subl   $0x269,-0x14(%ebp)

00000f8b <.L17>:
     f8b:	81 45 ec b4 03 00 00 	addl   $0x3b4,-0x14(%ebp)

00000f92 <.L18>:
     f92:	81 6d ec c9 01 00 00 	subl   $0x1c9,-0x14(%ebp)

00000f99 <.L19>:
     f99:	81 45 ec c9 01 00 00 	addl   $0x1c9,-0x14(%ebp)

00000fa0 <.L20>:
     fa0:	81 6d ec c9 01 00 00 	subl   $0x1c9,-0x14(%ebp)

00000fa7 <.L21>:
     fa7:	81 45 ec c9 01 00 00 	addl   $0x1c9,-0x14(%ebp)

00000fae <.L22>:
     fae:	81 6d ec c9 01 00 00 	subl   $0x1c9,-0x14(%ebp)
     fb5:	eb 05                	jmp    fbc <.L22+0xe>
     fb7:	e8 68 08 00 00       	call   1824 <explode_bomb>
     fbc:	8b 45 e4             	mov    -0x1c(%ebp),%eax
     fbf:	83 f8 05             	cmp    $0x5,%eax
     fc2:	7f 08                	jg     fcc <.L22+0x1e>
     fc4:	8b 45 e8             	mov    -0x18(%ebp),%eax
     fc7:	39 45 ec             	cmp    %eax,-0x14(%ebp)
     fca:	74 05                	je     fd1 <.L22+0x23>
     fcc:	e8 53 08 00 00       	call   1824 <explode_bomb>
     fd1:	90                   	nop
     fd2:	8b 45 f4             	mov    -0xc(%ebp),%eax
     fd5:	65 33 05 14 00 00 00 	xor    %gs:0x14,%eax
     fdc:	74 05                	je     fe3 <.L22+0x35>
     fde:	e8 6d 18 00 00       	call   2850 <__stack_chk_fail_local>
     fe3:	8b 5d fc             	mov    -0x4(%ebp),%ebx
     fe6:	c9                   	leave  
     fe7:	c3                   	ret    

00000fe8 <func4>:
     fe8:	55                   	push   %ebp
     fe9:	89 e5                	mov    %esp,%ebp
     feb:	53                   	push   %ebx
     fec:	83 ec 04             	sub    $0x4,%esp
     fef:	e8 f8 03 00 00       	call   13ec <__x86.get_pc_thunk.ax>
     ff4:	05 64 3f 00 00       	add    $0x3f64,%eax
     ff9:	83 7d 08 00          	cmpl   $0x0,0x8(%ebp)
     ffd:	7f 07                	jg     1006 <func4+0x1e>
     fff:	b8 00 00 00 00       	mov    $0x0,%eax
    1004:	eb 3f                	jmp    1045 <func4+0x5d>
    1006:	83 7d 08 01          	cmpl   $0x1,0x8(%ebp)
    100a:	75 05                	jne    1011 <func4+0x29>
    100c:	8b 45 0c             	mov    0xc(%ebp),%eax
    100f:	eb 34                	jmp    1045 <func4+0x5d>
    1011:	8b 45 08             	mov    0x8(%ebp),%eax
    1014:	83 e8 01             	sub    $0x1,%eax
    1017:	83 ec 08             	sub    $0x8,%esp
    101a:	ff 75 0c             	pushl  0xc(%ebp)
    101d:	50                   	push   %eax
    101e:	e8 c5 ff ff ff       	call   fe8 <func4>
    1023:	83 c4 10             	add    $0x10,%esp
    1026:	89 c2                	mov    %eax,%edx
    1028:	8b 45 0c             	mov    0xc(%ebp),%eax
    102b:	8d 1c 02             	lea    (%edx,%eax,1),%ebx
    102e:	8b 45 08             	mov    0x8(%ebp),%eax
    1031:	83 e8 02             	sub    $0x2,%eax
    1034:	83 ec 08             	sub    $0x8,%esp
    1037:	ff 75 0c             	pushl  0xc(%ebp)
    103a:	50                   	push   %eax
    103b:	e8 a8 ff ff ff       	call   fe8 <func4>
    1040:	83 c4 10             	add    $0x10,%esp
    1043:	01 d8                	add    %ebx,%eax
    1045:	8b 5d fc             	mov    -0x4(%ebp),%ebx
    1048:	c9                   	leave  
    1049:	c3                   	ret    

0000104a <phase_4>:
    104a:	55                   	push   %ebp
    104b:	89 e5                	mov    %esp,%ebp
    104d:	53                   	push   %ebx
    104e:	83 ec 34             	sub    $0x34,%esp
    1051:	e8 fa fa ff ff       	call   b50 <__x86.get_pc_thunk.bx>
    1056:	81 c3 02 3f 00 00    	add    $0x3f02,%ebx
    105c:	8b 45 08             	mov    0x8(%ebp),%eax
    105f:	89 45 d4             	mov    %eax,-0x2c(%ebp)
    1062:	65 a1 14 00 00 00    	mov    %gs:0x14,%eax
    1068:	89 45 f4             	mov    %eax,-0xc(%ebp)
    106b:	31 c0                	xor    %eax,%eax
    106d:	8d 45 e0             	lea    -0x20(%ebp),%eax
    1070:	50                   	push   %eax
    1071:	8d 45 e4             	lea    -0x1c(%ebp),%eax
    1074:	50                   	push   %eax
    1075:	8d 83 95 da ff ff    	lea    -0x256b(%ebx),%eax
    107b:	50                   	push   %eax
    107c:	ff 75 d4             	pushl  -0x2c(%ebp)
    107f:	e8 dc f9 ff ff       	call   a60 <__isoc99_sscanf@plt>
    1084:	83 c4 10             	add    $0x10,%esp
    1087:	89 45 e8             	mov    %eax,-0x18(%ebp)
    108a:	83 7d e8 02          	cmpl   $0x2,-0x18(%ebp)
    108e:	75 10                	jne    10a0 <phase_4+0x56>
    1090:	8b 45 e0             	mov    -0x20(%ebp),%eax
    1093:	83 f8 01             	cmp    $0x1,%eax
    1096:	7e 08                	jle    10a0 <phase_4+0x56>
    1098:	8b 45 e0             	mov    -0x20(%ebp),%eax
    109b:	83 f8 04             	cmp    $0x4,%eax
    109e:	7e 05                	jle    10a5 <phase_4+0x5b>
    10a0:	e8 7f 07 00 00       	call   1824 <explode_bomb>
    10a5:	c7 45 ec 09 00 00 00 	movl   $0x9,-0x14(%ebp)
    10ac:	8b 45 e0             	mov    -0x20(%ebp),%eax
    10af:	83 ec 08             	sub    $0x8,%esp
    10b2:	50                   	push   %eax
    10b3:	ff 75 ec             	pushl  -0x14(%ebp)
    10b6:	e8 2d ff ff ff       	call   fe8 <func4>
    10bb:	83 c4 10             	add    $0x10,%esp
    10be:	89 45 f0             	mov    %eax,-0x10(%ebp)
    10c1:	8b 45 e4             	mov    -0x1c(%ebp),%eax
    10c4:	39 45 f0             	cmp    %eax,-0x10(%ebp)
    10c7:	74 05                	je     10ce <phase_4+0x84>
    10c9:	e8 56 07 00 00       	call   1824 <explode_bomb>
    10ce:	90                   	nop
    10cf:	8b 45 f4             	mov    -0xc(%ebp),%eax
    10d2:	65 33 05 14 00 00 00 	xor    %gs:0x14,%eax
    10d9:	74 05                	je     10e0 <phase_4+0x96>
    10db:	e8 70 17 00 00       	call   2850 <__stack_chk_fail_local>
    10e0:	8b 5d fc             	mov    -0x4(%ebp),%ebx
    10e3:	c9                   	leave  
    10e4:	c3                   	ret    

000010e5 <phase_5>:
    10e5:	55                   	push   %ebp
    10e6:	89 e5                	mov    %esp,%ebp
    10e8:	53                   	push   %ebx
    10e9:	83 ec 34             	sub    $0x34,%esp
    10ec:	e8 5f fa ff ff       	call   b50 <__x86.get_pc_thunk.bx>
    10f1:	81 c3 67 3e 00 00    	add    $0x3e67,%ebx
    10f7:	8b 45 08             	mov    0x8(%ebp),%eax
    10fa:	89 45 d4             	mov    %eax,-0x2c(%ebp)
    10fd:	65 a1 14 00 00 00    	mov    %gs:0x14,%eax
    1103:	89 45 f4             	mov    %eax,-0xc(%ebp)
    1106:	31 c0                	xor    %eax,%eax
    1108:	83 ec 0c             	sub    $0xc,%esp
    110b:	ff 75 d4             	pushl  -0x2c(%ebp)
    110e:	e8 f2 03 00 00       	call   1505 <string_length>
    1113:	83 c4 10             	add    $0x10,%esp
    1116:	89 45 e8             	mov    %eax,-0x18(%ebp)
    1119:	83 7d e8 06          	cmpl   $0x6,-0x18(%ebp)
    111d:	74 05                	je     1124 <phase_5+0x3f>
    111f:	e8 00 07 00 00       	call   1824 <explode_bomb>
    1124:	c7 45 e4 00 00 00 00 	movl   $0x0,-0x1c(%ebp)
    112b:	eb 27                	jmp    1154 <phase_5+0x6f>
    112d:	8b 55 e4             	mov    -0x1c(%ebp),%edx
    1130:	8b 45 d4             	mov    -0x2c(%ebp),%eax
    1133:	01 d0                	add    %edx,%eax
    1135:	0f b6 00             	movzbl (%eax),%eax
    1138:	0f be c0             	movsbl %al,%eax
    113b:	83 e0 0f             	and    $0xf,%eax
    113e:	0f b6 84 03 20 01 00 	movzbl 0x120(%ebx,%eax,1),%eax
    1145:	00 
    1146:	8d 4d ed             	lea    -0x13(%ebp),%ecx
    1149:	8b 55 e4             	mov    -0x1c(%ebp),%edx
    114c:	01 ca                	add    %ecx,%edx
    114e:	88 02                	mov    %al,(%edx)
    1150:	83 45 e4 01          	addl   $0x1,-0x1c(%ebp)
    1154:	83 7d e4 05          	cmpl   $0x5,-0x1c(%ebp)
    1158:	7e d3                	jle    112d <phase_5+0x48>
    115a:	c6 45 f3 00          	movb   $0x0,-0xd(%ebp)
    115e:	83 ec 08             	sub    $0x8,%esp
    1161:	8d 83 bc da ff ff    	lea    -0x2544(%ebx),%eax
    1167:	50                   	push   %eax
    1168:	8d 45 ed             	lea    -0x13(%ebp),%eax
    116b:	50                   	push   %eax
    116c:	e8 ca 03 00 00       	call   153b <strings_not_equal>
    1171:	83 c4 10             	add    $0x10,%esp
    1174:	85 c0                	test   %eax,%eax
    1176:	74 05                	je     117d <phase_5+0x98>
    1178:	e8 a7 06 00 00       	call   1824 <explode_bomb>
    117d:	90                   	nop
    117e:	8b 45 f4             	mov    -0xc(%ebp),%eax
    1181:	65 33 05 14 00 00 00 	xor    %gs:0x14,%eax
    1188:	74 05                	je     118f <phase_5+0xaa>
    118a:	e8 c1 16 00 00       	call   2850 <__stack_chk_fail_local>
    118f:	8b 5d fc             	mov    -0x4(%ebp),%ebx
    1192:	c9                   	leave  
    1193:	c3                   	ret    

00001194 <phase_6>:
    1194:	55                   	push   %ebp
    1195:	89 e5                	mov    %esp,%ebp
    1197:	53                   	push   %ebx
    1198:	83 ec 64             	sub    $0x64,%esp
    119b:	e8 b0 f9 ff ff       	call   b50 <__x86.get_pc_thunk.bx>
    11a0:	81 c3 b8 3d 00 00    	add    $0x3db8,%ebx
    11a6:	8b 45 08             	mov    0x8(%ebp),%eax
    11a9:	89 45 a4             	mov    %eax,-0x5c(%ebp)
    11ac:	65 a1 14 00 00 00    	mov    %gs:0x14,%eax
    11b2:	89 45 f4             	mov    %eax,-0xc(%ebp)
    11b5:	31 c0                	xor    %eax,%eax
    11b7:	8d 83 60 01 00 00    	lea    0x160(%ebx),%eax
    11bd:	89 45 c0             	mov    %eax,-0x40(%ebp)
    11c0:	83 ec 08             	sub    $0x8,%esp
    11c3:	8d 45 c4             	lea    -0x3c(%ebp),%eax
    11c6:	50                   	push   %eax
    11c7:	ff 75 a4             	pushl  -0x5c(%ebp)
    11ca:	e8 d2 02 00 00       	call   14a1 <read_six_numbers>
    11cf:	83 c4 10             	add    $0x10,%esp
    11d2:	c7 45 b8 00 00 00 00 	movl   $0x0,-0x48(%ebp)
    11d9:	eb 4c                	jmp    1227 <phase_6+0x93>
    11db:	8b 45 b8             	mov    -0x48(%ebp),%eax
    11de:	8b 44 85 c4          	mov    -0x3c(%ebp,%eax,4),%eax
    11e2:	85 c0                	test   %eax,%eax
    11e4:	7e 0c                	jle    11f2 <phase_6+0x5e>
    11e6:	8b 45 b8             	mov    -0x48(%ebp),%eax
    11e9:	8b 44 85 c4          	mov    -0x3c(%ebp,%eax,4),%eax
    11ed:	83 f8 06             	cmp    $0x6,%eax
    11f0:	7e 05                	jle    11f7 <phase_6+0x63>
    11f2:	e8 2d 06 00 00       	call   1824 <explode_bomb>
    11f7:	8b 45 b8             	mov    -0x48(%ebp),%eax
    11fa:	83 c0 01             	add    $0x1,%eax
    11fd:	89 45 bc             	mov    %eax,-0x44(%ebp)
    1200:	eb 1b                	jmp    121d <phase_6+0x89>
    1202:	8b 45 b8             	mov    -0x48(%ebp),%eax
    1205:	8b 54 85 c4          	mov    -0x3c(%ebp,%eax,4),%edx
    1209:	8b 45 bc             	mov    -0x44(%ebp),%eax
    120c:	8b 44 85 c4          	mov    -0x3c(%ebp,%eax,4),%eax
    1210:	39 c2                	cmp    %eax,%edx
    1212:	75 05                	jne    1219 <phase_6+0x85>
    1214:	e8 0b 06 00 00       	call   1824 <explode_bomb>
    1219:	83 45 bc 01          	addl   $0x1,-0x44(%ebp)
    121d:	83 7d bc 05          	cmpl   $0x5,-0x44(%ebp)
    1221:	7e df                	jle    1202 <phase_6+0x6e>
    1223:	83 45 b8 01          	addl   $0x1,-0x48(%ebp)
    1227:	83 7d b8 05          	cmpl   $0x5,-0x48(%ebp)
    122b:	7e ae                	jle    11db <phase_6+0x47>
    122d:	c7 45 b8 00 00 00 00 	movl   $0x0,-0x48(%ebp)
    1234:	eb 36                	jmp    126c <phase_6+0xd8>
    1236:	8b 45 c0             	mov    -0x40(%ebp),%eax
    1239:	89 45 b4             	mov    %eax,-0x4c(%ebp)
    123c:	c7 45 bc 01 00 00 00 	movl   $0x1,-0x44(%ebp)
    1243:	eb 0d                	jmp    1252 <phase_6+0xbe>
    1245:	8b 45 b4             	mov    -0x4c(%ebp),%eax
    1248:	8b 40 08             	mov    0x8(%eax),%eax
    124b:	89 45 b4             	mov    %eax,-0x4c(%ebp)
    124e:	83 45 bc 01          	addl   $0x1,-0x44(%ebp)
    1252:	8b 45 b8             	mov    -0x48(%ebp),%eax
    1255:	8b 44 85 c4          	mov    -0x3c(%ebp,%eax,4),%eax
    1259:	39 45 bc             	cmp    %eax,-0x44(%ebp)
    125c:	7c e7                	jl     1245 <phase_6+0xb1>
    125e:	8b 45 b8             	mov    -0x48(%ebp),%eax
    1261:	8b 55 b4             	mov    -0x4c(%ebp),%edx
    1264:	89 54 85 dc          	mov    %edx,-0x24(%ebp,%eax,4)
    1268:	83 45 b8 01          	addl   $0x1,-0x48(%ebp)
    126c:	83 7d b8 05          	cmpl   $0x5,-0x48(%ebp)
    1270:	7e c4                	jle    1236 <phase_6+0xa2>
    1272:	8b 45 dc             	mov    -0x24(%ebp),%eax
    1275:	89 45 c0             	mov    %eax,-0x40(%ebp)
    1278:	8b 45 c0             	mov    -0x40(%ebp),%eax
    127b:	89 45 b4             	mov    %eax,-0x4c(%ebp)
    127e:	c7 45 b8 01 00 00 00 	movl   $0x1,-0x48(%ebp)
    1285:	eb 1a                	jmp    12a1 <phase_6+0x10d>
    1287:	8b 45 b8             	mov    -0x48(%ebp),%eax
    128a:	8b 54 85 dc          	mov    -0x24(%ebp,%eax,4),%edx
    128e:	8b 45 b4             	mov    -0x4c(%ebp),%eax
    1291:	89 50 08             	mov    %edx,0x8(%eax)
    1294:	8b 45 b4             	mov    -0x4c(%ebp),%eax
    1297:	8b 40 08             	mov    0x8(%eax),%eax
    129a:	89 45 b4             	mov    %eax,-0x4c(%ebp)
    129d:	83 45 b8 01          	addl   $0x1,-0x48(%ebp)
    12a1:	83 7d b8 05          	cmpl   $0x5,-0x48(%ebp)
    12a5:	7e e0                	jle    1287 <phase_6+0xf3>
    12a7:	8b 45 b4             	mov    -0x4c(%ebp),%eax
    12aa:	c7 40 08 00 00 00 00 	movl   $0x0,0x8(%eax)
    12b1:	8b 45 c0             	mov    -0x40(%ebp),%eax
    12b4:	89 45 b4             	mov    %eax,-0x4c(%ebp)
    12b7:	c7 45 b8 00 00 00 00 	movl   $0x0,-0x48(%ebp)
    12be:	eb 23                	jmp    12e3 <phase_6+0x14f>
    12c0:	8b 45 b4             	mov    -0x4c(%ebp),%eax
    12c3:	8b 10                	mov    (%eax),%edx
    12c5:	8b 45 b4             	mov    -0x4c(%ebp),%eax
    12c8:	8b 40 08             	mov    0x8(%eax),%eax
    12cb:	8b 00                	mov    (%eax),%eax
    12cd:	39 c2                	cmp    %eax,%edx
    12cf:	7d 05                	jge    12d6 <phase_6+0x142>
    12d1:	e8 4e 05 00 00       	call   1824 <explode_bomb>
    12d6:	8b 45 b4             	mov    -0x4c(%ebp),%eax
    12d9:	8b 40 08             	mov    0x8(%eax),%eax
    12dc:	89 45 b4             	mov    %eax,-0x4c(%ebp)
    12df:	83 45 b8 01          	addl   $0x1,-0x48(%ebp)
    12e3:	83 7d b8 04          	cmpl   $0x4,-0x48(%ebp)
    12e7:	7e d7                	jle    12c0 <phase_6+0x12c>
    12e9:	90                   	nop
    12ea:	8b 45 f4             	mov    -0xc(%ebp),%eax
    12ed:	65 33 05 14 00 00 00 	xor    %gs:0x14,%eax
    12f4:	74 05                	je     12fb <phase_6+0x167>
    12f6:	e8 55 15 00 00       	call   2850 <__stack_chk_fail_local>
    12fb:	8b 5d fc             	mov    -0x4(%ebp),%ebx
    12fe:	c9                   	leave  
    12ff:	c3                   	ret    

00001300 <fun7>:
    1300:	55                   	push   %ebp
    1301:	89 e5                	mov    %esp,%ebp
    1303:	83 ec 08             	sub    $0x8,%esp
    1306:	e8 e1 00 00 00       	call   13ec <__x86.get_pc_thunk.ax>
    130b:	05 4d 3c 00 00       	add    $0x3c4d,%eax
    1310:	83 7d 08 00          	cmpl   $0x0,0x8(%ebp)
    1314:	75 07                	jne    131d <fun7+0x1d>
    1316:	b8 ff ff ff ff       	mov    $0xffffffff,%eax
    131b:	eb 4e                	jmp    136b <fun7+0x6b>
    131d:	8b 45 08             	mov    0x8(%ebp),%eax
    1320:	8b 00                	mov    (%eax),%eax
    1322:	39 45 0c             	cmp    %eax,0xc(%ebp)
    1325:	7d 19                	jge    1340 <fun7+0x40>
    1327:	8b 45 08             	mov    0x8(%ebp),%eax
    132a:	8b 40 04             	mov    0x4(%eax),%eax
    132d:	83 ec 08             	sub    $0x8,%esp
    1330:	ff 75 0c             	pushl  0xc(%ebp)
    1333:	50                   	push   %eax
    1334:	e8 c7 ff ff ff       	call   1300 <fun7>
    1339:	83 c4 10             	add    $0x10,%esp
    133c:	01 c0                	add    %eax,%eax
    133e:	eb 2b                	jmp    136b <fun7+0x6b>
    1340:	8b 45 08             	mov    0x8(%ebp),%eax
    1343:	8b 00                	mov    (%eax),%eax
    1345:	39 45 0c             	cmp    %eax,0xc(%ebp)
    1348:	75 07                	jne    1351 <fun7+0x51>
    134a:	b8 00 00 00 00       	mov    $0x0,%eax
    134f:	eb 1a                	jmp    136b <fun7+0x6b>
    1351:	8b 45 08             	mov    0x8(%ebp),%eax
    1354:	8b 40 08             	mov    0x8(%eax),%eax
    1357:	83 ec 08             	sub    $0x8,%esp
    135a:	ff 75 0c             	pushl  0xc(%ebp)
    135d:	50                   	push   %eax
    135e:	e8 9d ff ff ff       	call   1300 <fun7>
    1363:	83 c4 10             	add    $0x10,%esp
    1366:	01 c0                	add    %eax,%eax
    1368:	83 c0 01             	add    $0x1,%eax
    136b:	c9                   	leave  
    136c:	c3                   	ret    

0000136d <secret_phase>:
    136d:	55                   	push   %ebp
    136e:	89 e5                	mov    %esp,%ebp
    1370:	53                   	push   %ebx
    1371:	83 ec 14             	sub    $0x14,%esp
    1374:	e8 d7 f7 ff ff       	call   b50 <__x86.get_pc_thunk.bx>
    1379:	81 c3 df 3b 00 00    	add    $0x3bdf,%ebx
    137f:	e8 26 03 00 00       	call   16aa <read_line>
    1384:	89 45 ec             	mov    %eax,-0x14(%ebp)
    1387:	83 ec 0c             	sub    $0xc,%esp
    138a:	ff 75 ec             	pushl  -0x14(%ebp)
    138d:	e8 0e f7 ff ff       	call   aa0 <atoi@plt>
    1392:	83 c4 10             	add    $0x10,%esp
    1395:	89 45 f0             	mov    %eax,-0x10(%ebp)
    1398:	83 7d f0 00          	cmpl   $0x0,-0x10(%ebp)
    139c:	7e 09                	jle    13a7 <secret_phase+0x3a>
    139e:	81 7d f0 e9 03 00 00 	cmpl   $0x3e9,-0x10(%ebp)
    13a5:	7e 05                	jle    13ac <secret_phase+0x3f>
    13a7:	e8 78 04 00 00       	call   1824 <explode_bomb>
    13ac:	83 ec 08             	sub    $0x8,%esp
    13af:	ff 75 f0             	pushl  -0x10(%ebp)
    13b2:	8d 83 b4 01 00 00    	lea    0x1b4(%ebx),%eax
    13b8:	50                   	push   %eax
    13b9:	e8 42 ff ff ff       	call   1300 <fun7>
    13be:	83 c4 10             	add    $0x10,%esp
    13c1:	89 45 f4             	mov    %eax,-0xc(%ebp)
    13c4:	83 7d f4 03          	cmpl   $0x3,-0xc(%ebp)
    13c8:	74 05                	je     13cf <secret_phase+0x62>
    13ca:	e8 55 04 00 00       	call   1824 <explode_bomb>
    13cf:	83 ec 0c             	sub    $0xc,%esp
    13d2:	8d 83 c4 da ff ff    	lea    -0x253c(%ebx),%eax
    13d8:	50                   	push   %eax
    13d9:	e8 22 f6 ff ff       	call   a00 <puts@plt>
    13de:	83 c4 10             	add    $0x10,%esp
    13e1:	e8 7e 04 00 00       	call   1864 <phase_defused>
    13e6:	90                   	nop
    13e7:	8b 5d fc             	mov    -0x4(%ebp),%ebx
    13ea:	c9                   	leave  
    13eb:	c3                   	ret    

000013ec <__x86.get_pc_thunk.ax>:
    13ec:	8b 04 24             	mov    (%esp),%eax
    13ef:	c3                   	ret    

000013f0 <sig_handler>:
    13f0:	55                   	push   %ebp
    13f1:	89 e5                	mov    %esp,%ebp
    13f3:	53                   	push   %ebx
    13f4:	83 ec 04             	sub    $0x4,%esp
    13f7:	e8 54 f7 ff ff       	call   b50 <__x86.get_pc_thunk.bx>
    13fc:	81 c3 5c 3b 00 00    	add    $0x3b5c,%ebx
    1402:	83 ec 0c             	sub    $0xc,%esp
    1405:	8d 83 54 db ff ff    	lea    -0x24ac(%ebx),%eax
    140b:	50                   	push   %eax
    140c:	e8 ef f5 ff ff       	call   a00 <puts@plt>
    1411:	83 c4 10             	add    $0x10,%esp
    1414:	83 ec 0c             	sub    $0xc,%esp
    1417:	6a 03                	push   $0x3
    1419:	e8 72 f5 ff ff       	call   990 <sleep@plt>
    141e:	83 c4 10             	add    $0x10,%esp
    1421:	83 ec 0c             	sub    $0xc,%esp
    1424:	8d 83 8c db ff ff    	lea    -0x2474(%ebx),%eax
    142a:	50                   	push   %eax
    142b:	e8 00 f5 ff ff       	call   930 <printf@plt>
    1430:	83 c4 10             	add    $0x10,%esp
    1433:	8b 83 9c 00 00 00    	mov    0x9c(%ebx),%eax
    1439:	8b 00                	mov    (%eax),%eax
    143b:	83 ec 0c             	sub    $0xc,%esp
    143e:	50                   	push   %eax
    143f:	e8 fc f4 ff ff       	call   940 <fflush@plt>
    1444:	83 c4 10             	add    $0x10,%esp
    1447:	83 ec 0c             	sub    $0xc,%esp
    144a:	6a 01                	push   $0x1
    144c:	e8 3f f5 ff ff       	call   990 <sleep@plt>
    1451:	83 c4 10             	add    $0x10,%esp
    1454:	83 ec 0c             	sub    $0xc,%esp
    1457:	8d 83 94 db ff ff    	lea    -0x246c(%ebx),%eax
    145d:	50                   	push   %eax
    145e:	e8 9d f5 ff ff       	call   a00 <puts@plt>
    1463:	83 c4 10             	add    $0x10,%esp
    1466:	83 ec 0c             	sub    $0xc,%esp
    1469:	6a 10                	push   $0x10
    146b:	e8 a0 f5 ff ff       	call   a10 <exit@plt>

00001470 <invalid_phase>:
    1470:	55                   	push   %ebp
    1471:	89 e5                	mov    %esp,%ebp
    1473:	53                   	push   %ebx
    1474:	83 ec 04             	sub    $0x4,%esp
    1477:	e8 d4 f6 ff ff       	call   b50 <__x86.get_pc_thunk.bx>
    147c:	81 c3 dc 3a 00 00    	add    $0x3adc,%ebx
    1482:	83 ec 08             	sub    $0x8,%esp
    1485:	ff 75 08             	pushl  0x8(%ebp)
    1488:	8d 83 9c db ff ff    	lea    -0x2464(%ebx),%eax
    148e:	50                   	push   %eax
    148f:	e8 9c f4 ff ff       	call   930 <printf@plt>
    1494:	83 c4 10             	add    $0x10,%esp
    1497:	83 ec 0c             	sub    $0xc,%esp
    149a:	6a 08                	push   $0x8
    149c:	e8 6f f5 ff ff       	call   a10 <exit@plt>

000014a1 <read_six_numbers>:
    14a1:	55                   	push   %ebp
    14a2:	89 e5                	mov    %esp,%ebp
    14a4:	57                   	push   %edi
    14a5:	56                   	push   %esi
    14a6:	53                   	push   %ebx
    14a7:	83 ec 1c             	sub    $0x1c,%esp
    14aa:	e8 3d ff ff ff       	call   13ec <__x86.get_pc_thunk.ax>
    14af:	05 a9 3a 00 00       	add    $0x3aa9,%eax
    14b4:	8b 55 0c             	mov    0xc(%ebp),%edx
    14b7:	8d 7a 14             	lea    0x14(%edx),%edi
    14ba:	8b 55 0c             	mov    0xc(%ebp),%edx
    14bd:	8d 72 10             	lea    0x10(%edx),%esi
    14c0:	8b 55 0c             	mov    0xc(%ebp),%edx
    14c3:	8d 5a 0c             	lea    0xc(%edx),%ebx
    14c6:	8b 55 0c             	mov    0xc(%ebp),%edx
    14c9:	8d 4a 08             	lea    0x8(%edx),%ecx
    14cc:	8b 55 0c             	mov    0xc(%ebp),%edx
    14cf:	83 c2 04             	add    $0x4,%edx
    14d2:	57                   	push   %edi
    14d3:	56                   	push   %esi
    14d4:	53                   	push   %ebx
    14d5:	51                   	push   %ecx
    14d6:	52                   	push   %edx
    14d7:	ff 75 0c             	pushl  0xc(%ebp)
    14da:	8d 90 ad db ff ff    	lea    -0x2453(%eax),%edx
    14e0:	52                   	push   %edx
    14e1:	ff 75 08             	pushl  0x8(%ebp)
    14e4:	89 c3                	mov    %eax,%ebx
    14e6:	e8 75 f5 ff ff       	call   a60 <__isoc99_sscanf@plt>
    14eb:	83 c4 20             	add    $0x20,%esp
    14ee:	89 45 e4             	mov    %eax,-0x1c(%ebp)
    14f1:	83 7d e4 05          	cmpl   $0x5,-0x1c(%ebp)
    14f5:	7f 05                	jg     14fc <read_six_numbers+0x5b>
    14f7:	e8 28 03 00 00       	call   1824 <explode_bomb>
    14fc:	90                   	nop
    14fd:	8d 65 f4             	lea    -0xc(%ebp),%esp
    1500:	5b                   	pop    %ebx
    1501:	5e                   	pop    %esi
    1502:	5f                   	pop    %edi
    1503:	5d                   	pop    %ebp
    1504:	c3                   	ret    

00001505 <string_length>:
    1505:	55                   	push   %ebp
    1506:	89 e5                	mov    %esp,%ebp
    1508:	83 ec 10             	sub    $0x10,%esp
    150b:	e8 dc fe ff ff       	call   13ec <__x86.get_pc_thunk.ax>
    1510:	05 48 3a 00 00       	add    $0x3a48,%eax
    1515:	8b 45 08             	mov    0x8(%ebp),%eax
    1518:	89 45 fc             	mov    %eax,-0x4(%ebp)
    151b:	c7 45 f8 00 00 00 00 	movl   $0x0,-0x8(%ebp)
    1522:	eb 08                	jmp    152c <string_length+0x27>
    1524:	83 45 fc 01          	addl   $0x1,-0x4(%ebp)
    1528:	83 45 f8 01          	addl   $0x1,-0x8(%ebp)
    152c:	8b 45 fc             	mov    -0x4(%ebp),%eax
    152f:	0f b6 00             	movzbl (%eax),%eax
    1532:	84 c0                	test   %al,%al
    1534:	75 ee                	jne    1524 <string_length+0x1f>
    1536:	8b 45 f8             	mov    -0x8(%ebp),%eax
    1539:	c9                   	leave  
    153a:	c3                   	ret    

0000153b <strings_not_equal>:
    153b:	55                   	push   %ebp
    153c:	89 e5                	mov    %esp,%ebp
    153e:	53                   	push   %ebx
    153f:	83 ec 10             	sub    $0x10,%esp
    1542:	e8 a5 fe ff ff       	call   13ec <__x86.get_pc_thunk.ax>
    1547:	05 11 3a 00 00       	add    $0x3a11,%eax
    154c:	ff 75 08             	pushl  0x8(%ebp)
    154f:	e8 b1 ff ff ff       	call   1505 <string_length>
    1554:	83 c4 04             	add    $0x4,%esp
    1557:	89 c3                	mov    %eax,%ebx
    1559:	ff 75 0c             	pushl  0xc(%ebp)
    155c:	e8 a4 ff ff ff       	call   1505 <string_length>
    1561:	83 c4 04             	add    $0x4,%esp
    1564:	39 c3                	cmp    %eax,%ebx
    1566:	74 07                	je     156f <strings_not_equal+0x34>
    1568:	b8 01 00 00 00       	mov    $0x1,%eax
    156d:	eb 3c                	jmp    15ab <strings_not_equal+0x70>
    156f:	8b 45 08             	mov    0x8(%ebp),%eax
    1572:	89 45 f4             	mov    %eax,-0xc(%ebp)
    1575:	8b 45 0c             	mov    0xc(%ebp),%eax
    1578:	89 45 f8             	mov    %eax,-0x8(%ebp)
    157b:	eb 1f                	jmp    159c <strings_not_equal+0x61>
    157d:	8b 45 f4             	mov    -0xc(%ebp),%eax
    1580:	0f b6 10             	movzbl (%eax),%edx
    1583:	8b 45 f8             	mov    -0x8(%ebp),%eax
    1586:	0f b6 00             	movzbl (%eax),%eax
    1589:	38 c2                	cmp    %al,%dl
    158b:	74 07                	je     1594 <strings_not_equal+0x59>
    158d:	b8 01 00 00 00       	mov    $0x1,%eax
    1592:	eb 17                	jmp    15ab <strings_not_equal+0x70>
    1594:	83 45 f4 01          	addl   $0x1,-0xc(%ebp)
    1598:	83 45 f8 01          	addl   $0x1,-0x8(%ebp)
    159c:	8b 45 f4             	mov    -0xc(%ebp),%eax
    159f:	0f b6 00             	movzbl (%eax),%eax
    15a2:	84 c0                	test   %al,%al
    15a4:	75 d7                	jne    157d <strings_not_equal+0x42>
    15a6:	b8 00 00 00 00       	mov    $0x0,%eax
    15ab:	8b 5d fc             	mov    -0x4(%ebp),%ebx
    15ae:	c9                   	leave  
    15af:	c3                   	ret    

000015b0 <initialize_bomb>:
    15b0:	55                   	push   %ebp
    15b1:	89 e5                	mov    %esp,%ebp
    15b3:	53                   	push   %ebx
    15b4:	83 ec 04             	sub    $0x4,%esp
    15b7:	e8 30 fe ff ff       	call   13ec <__x86.get_pc_thunk.ax>
    15bc:	05 9c 39 00 00       	add    $0x399c,%eax
    15c1:	83 ec 08             	sub    $0x8,%esp
    15c4:	8d 90 98 c4 ff ff    	lea    -0x3b68(%eax),%edx
    15ca:	52                   	push   %edx
    15cb:	6a 02                	push   $0x2
    15cd:	89 c3                	mov    %eax,%ebx
    15cf:	e8 ac f3 ff ff       	call   980 <signal@plt>
    15d4:	83 c4 10             	add    $0x10,%esp
    15d7:	90                   	nop
    15d8:	8b 5d fc             	mov    -0x4(%ebp),%ebx
    15db:	c9                   	leave  
    15dc:	c3                   	ret    

000015dd <initialize_bomb_solve>:
    15dd:	55                   	push   %ebp
    15de:	89 e5                	mov    %esp,%ebp
    15e0:	e8 07 fe ff ff       	call   13ec <__x86.get_pc_thunk.ax>
    15e5:	05 73 39 00 00       	add    $0x3973,%eax
    15ea:	90                   	nop
    15eb:	5d                   	pop    %ebp
    15ec:	c3                   	ret    

000015ed <blank_line>:
    15ed:	55                   	push   %ebp
    15ee:	89 e5                	mov    %esp,%ebp
    15f0:	53                   	push   %ebx
    15f1:	83 ec 04             	sub    $0x4,%esp
    15f4:	e8 57 f5 ff ff       	call   b50 <__x86.get_pc_thunk.bx>
    15f9:	81 c3 5f 39 00 00    	add    $0x395f,%ebx
    15ff:	eb 30                	jmp    1631 <blank_line+0x44>
    1601:	e8 ea f4 ff ff       	call   af0 <__ctype_b_loc@plt>
    1606:	8b 08                	mov    (%eax),%ecx
    1608:	8b 45 08             	mov    0x8(%ebp),%eax
    160b:	8d 50 01             	lea    0x1(%eax),%edx
    160e:	89 55 08             	mov    %edx,0x8(%ebp)
    1611:	0f b6 00             	movzbl (%eax),%eax
    1614:	0f be c0             	movsbl %al,%eax
    1617:	01 c0                	add    %eax,%eax
    1619:	01 c8                	add    %ecx,%eax
    161b:	0f b7 00             	movzwl (%eax),%eax
    161e:	0f b7 c0             	movzwl %ax,%eax
    1621:	25 00 20 00 00       	and    $0x2000,%eax
    1626:	85 c0                	test   %eax,%eax
    1628:	75 07                	jne    1631 <blank_line+0x44>
    162a:	b8 00 00 00 00       	mov    $0x0,%eax
    162f:	eb 0f                	jmp    1640 <blank_line+0x53>
    1631:	8b 45 08             	mov    0x8(%ebp),%eax
    1634:	0f b6 00             	movzbl (%eax),%eax
    1637:	84 c0                	test   %al,%al
    1639:	75 c6                	jne    1601 <blank_line+0x14>
    163b:	b8 01 00 00 00       	mov    $0x1,%eax
    1640:	83 c4 04             	add    $0x4,%esp
    1643:	5b                   	pop    %ebx
    1644:	5d                   	pop    %ebp
    1645:	c3                   	ret    

00001646 <skip>:
    1646:	55                   	push   %ebp
    1647:	89 e5                	mov    %esp,%ebp
    1649:	53                   	push   %ebx
    164a:	83 ec 14             	sub    $0x14,%esp
    164d:	e8 fe f4 ff ff       	call   b50 <__x86.get_pc_thunk.bx>
    1652:	81 c3 06 39 00 00    	add    $0x3906,%ebx
    1658:	8d 83 d0 03 00 00    	lea    0x3d0(%ebx),%eax
    165e:	8b 08                	mov    (%eax),%ecx
    1660:	8b 93 cc 03 00 00    	mov    0x3cc(%ebx),%edx
    1666:	89 d0                	mov    %edx,%eax
    1668:	c1 e0 02             	shl    $0x2,%eax
    166b:	01 d0                	add    %edx,%eax
    166d:	c1 e0 04             	shl    $0x4,%eax
    1670:	8d 93 e8 03 00 00    	lea    0x3e8(%ebx),%edx
    1676:	01 d0                	add    %edx,%eax
    1678:	83 ec 04             	sub    $0x4,%esp
    167b:	51                   	push   %ecx
    167c:	6a 50                	push   $0x50
    167e:	50                   	push   %eax
    167f:	e8 ec f2 ff ff       	call   970 <fgets@plt>
    1684:	83 c4 10             	add    $0x10,%esp
    1687:	89 45 f4             	mov    %eax,-0xc(%ebp)
    168a:	83 7d f4 00          	cmpl   $0x0,-0xc(%ebp)
    168e:	74 12                	je     16a2 <skip+0x5c>
    1690:	83 ec 0c             	sub    $0xc,%esp
    1693:	ff 75 f4             	pushl  -0xc(%ebp)
    1696:	e8 52 ff ff ff       	call   15ed <blank_line>
    169b:	83 c4 10             	add    $0x10,%esp
    169e:	85 c0                	test   %eax,%eax
    16a0:	75 b6                	jne    1658 <skip+0x12>
    16a2:	8b 45 f4             	mov    -0xc(%ebp),%eax
    16a5:	8b 5d fc             	mov    -0x4(%ebp),%ebx
    16a8:	c9                   	leave  
    16a9:	c3                   	ret    

000016aa <read_line>:
    16aa:	55                   	push   %ebp
    16ab:	89 e5                	mov    %esp,%ebp
    16ad:	56                   	push   %esi
    16ae:	53                   	push   %ebx
    16af:	83 ec 10             	sub    $0x10,%esp
    16b2:	e8 99 f4 ff ff       	call   b50 <__x86.get_pc_thunk.bx>
    16b7:	81 c3 a1 38 00 00    	add    $0x38a1,%ebx
    16bd:	e8 84 ff ff ff       	call   1646 <skip>
    16c2:	89 45 f0             	mov    %eax,-0x10(%ebp)
    16c5:	83 7d f0 00          	cmpl   $0x0,-0x10(%ebp)
    16c9:	0f 85 8a 00 00 00    	jne    1759 <read_line+0xaf>
    16cf:	8d 83 d0 03 00 00    	lea    0x3d0(%ebx),%eax
    16d5:	8b 10                	mov    (%eax),%edx
    16d7:	8b 83 98 00 00 00    	mov    0x98(%ebx),%eax
    16dd:	8b 00                	mov    (%eax),%eax
    16df:	39 c2                	cmp    %eax,%edx
    16e1:	75 1c                	jne    16ff <read_line+0x55>
    16e3:	83 ec 0c             	sub    $0xc,%esp
    16e6:	8d 83 bf db ff ff    	lea    -0x2441(%ebx),%eax
    16ec:	50                   	push   %eax
    16ed:	e8 0e f3 ff ff       	call   a00 <puts@plt>
    16f2:	83 c4 10             	add    $0x10,%esp
    16f5:	83 ec 0c             	sub    $0xc,%esp
    16f8:	6a 08                	push   $0x8
    16fa:	e8 11 f3 ff ff       	call   a10 <exit@plt>
    16ff:	83 ec 0c             	sub    $0xc,%esp
    1702:	8d 83 dd db ff ff    	lea    -0x2423(%ebx),%eax
    1708:	50                   	push   %eax
    1709:	e8 e2 f2 ff ff       	call   9f0 <getenv@plt>
    170e:	83 c4 10             	add    $0x10,%esp
    1711:	85 c0                	test   %eax,%eax
    1713:	74 0a                	je     171f <read_line+0x75>
    1715:	83 ec 0c             	sub    $0xc,%esp
    1718:	6a 00                	push   $0x0
    171a:	e8 f1 f2 ff ff       	call   a10 <exit@plt>
    171f:	8b 83 98 00 00 00    	mov    0x98(%ebx),%eax
    1725:	8b 10                	mov    (%eax),%edx
    1727:	8d 83 d0 03 00 00    	lea    0x3d0(%ebx),%eax
    172d:	89 10                	mov    %edx,(%eax)
    172f:	e8 12 ff ff ff       	call   1646 <skip>
    1734:	89 45 f0             	mov    %eax,-0x10(%ebp)
    1737:	83 7d f0 00          	cmpl   $0x0,-0x10(%ebp)
    173b:	75 1c                	jne    1759 <read_line+0xaf>
    173d:	83 ec 0c             	sub    $0xc,%esp
    1740:	8d 83 bf db ff ff    	lea    -0x2441(%ebx),%eax
    1746:	50                   	push   %eax
    1747:	e8 b4 f2 ff ff       	call   a00 <puts@plt>
    174c:	83 c4 10             	add    $0x10,%esp
    174f:	83 ec 0c             	sub    $0xc,%esp
    1752:	6a 00                	push   $0x0
    1754:	e8 b7 f2 ff ff       	call   a10 <exit@plt>
    1759:	8b 93 cc 03 00 00    	mov    0x3cc(%ebx),%edx
    175f:	89 d0                	mov    %edx,%eax
    1761:	c1 e0 02             	shl    $0x2,%eax
    1764:	01 d0                	add    %edx,%eax
    1766:	c1 e0 04             	shl    $0x4,%eax
    1769:	8d 93 e8 03 00 00    	lea    0x3e8(%ebx),%edx
    176f:	01 d0                	add    %edx,%eax
    1771:	83 ec 0c             	sub    $0xc,%esp
    1774:	50                   	push   %eax
    1775:	e8 a6 f2 ff ff       	call   a20 <strlen@plt>
    177a:	83 c4 10             	add    $0x10,%esp
    177d:	89 45 f4             	mov    %eax,-0xc(%ebp)
    1780:	83 7d f4 4e          	cmpl   $0x4e,-0xc(%ebp)
    1784:	7e 53                	jle    17d9 <read_line+0x12f>
    1786:	83 ec 0c             	sub    $0xc,%esp
    1789:	8d 83 e8 db ff ff    	lea    -0x2418(%ebx),%eax
    178f:	50                   	push   %eax
    1790:	e8 6b f2 ff ff       	call   a00 <puts@plt>
    1795:	83 c4 10             	add    $0x10,%esp
    1798:	8b 93 cc 03 00 00    	mov    0x3cc(%ebx),%edx
    179e:	8d 42 01             	lea    0x1(%edx),%eax
    17a1:	89 83 cc 03 00 00    	mov    %eax,0x3cc(%ebx)
    17a7:	89 d0                	mov    %edx,%eax
    17a9:	c1 e0 02             	shl    $0x2,%eax
    17ac:	01 d0                	add    %edx,%eax
    17ae:	c1 e0 04             	shl    $0x4,%eax
    17b1:	8d 93 e8 03 00 00    	lea    0x3e8(%ebx),%edx
    17b7:	01 d0                	add    %edx,%eax
    17b9:	c7 00 2a 2a 2a 74    	movl   $0x742a2a2a,(%eax)
    17bf:	c7 40 04 72 75 6e 63 	movl   $0x636e7572,0x4(%eax)
    17c6:	c7 40 08 61 74 65 64 	movl   $0x64657461,0x8(%eax)
    17cd:	c7 40 0c 2a 2a 2a 00 	movl   $0x2a2a2a,0xc(%eax)
    17d4:	e8 4b 00 00 00       	call   1824 <explode_bomb>
    17d9:	8b 93 cc 03 00 00    	mov    0x3cc(%ebx),%edx
    17df:	8b 45 f4             	mov    -0xc(%ebp),%eax
    17e2:	8d 70 ff             	lea    -0x1(%eax),%esi
    17e5:	8d 8b e8 03 00 00    	lea    0x3e8(%ebx),%ecx
    17eb:	89 d0                	mov    %edx,%eax
    17ed:	c1 e0 02             	shl    $0x2,%eax
    17f0:	01 d0                	add    %edx,%eax
    17f2:	c1 e0 04             	shl    $0x4,%eax
    17f5:	01 c8                	add    %ecx,%eax
    17f7:	01 f0                	add    %esi,%eax
    17f9:	c6 00 00             	movb   $0x0,(%eax)
    17fc:	8b 93 cc 03 00 00    	mov    0x3cc(%ebx),%edx
    1802:	8d 42 01             	lea    0x1(%edx),%eax
    1805:	89 83 cc 03 00 00    	mov    %eax,0x3cc(%ebx)
    180b:	89 d0                	mov    %edx,%eax
    180d:	c1 e0 02             	shl    $0x2,%eax
    1810:	01 d0                	add    %edx,%eax
    1812:	c1 e0 04             	shl    $0x4,%eax
    1815:	8d 93 e8 03 00 00    	lea    0x3e8(%ebx),%edx
    181b:	01 d0                	add    %edx,%eax
    181d:	8d 65 f8             	lea    -0x8(%ebp),%esp
    1820:	5b                   	pop    %ebx
    1821:	5e                   	pop    %esi
    1822:	5d                   	pop    %ebp
    1823:	c3                   	ret    

00001824 <explode_bomb>:
    1824:	55                   	push   %ebp
    1825:	89 e5                	mov    %esp,%ebp
    1827:	53                   	push   %ebx
    1828:	83 ec 04             	sub    $0x4,%esp
    182b:	e8 20 f3 ff ff       	call   b50 <__x86.get_pc_thunk.bx>
    1830:	81 c3 28 37 00 00    	add    $0x3728,%ebx
    1836:	83 ec 0c             	sub    $0xc,%esp
    1839:	8d 83 03 dc ff ff    	lea    -0x23fd(%ebx),%eax
    183f:	50                   	push   %eax
    1840:	e8 bb f1 ff ff       	call   a00 <puts@plt>
    1845:	83 c4 10             	add    $0x10,%esp
    1848:	83 ec 0c             	sub    $0xc,%esp
    184b:	8d 83 0c dc ff ff    	lea    -0x23f4(%ebx),%eax
    1851:	50                   	push   %eax
    1852:	e8 a9 f1 ff ff       	call   a00 <puts@plt>
    1857:	83 c4 10             	add    $0x10,%esp
    185a:	83 ec 0c             	sub    $0xc,%esp
    185d:	6a 08                	push   $0x8
    185f:	e8 ac f1 ff ff       	call   a10 <exit@plt>

00001864 <phase_defused>:
    1864:	55                   	push   %ebp
    1865:	89 e5                	mov    %esp,%ebp
    1867:	53                   	push   %ebx
    1868:	83 ec 64             	sub    $0x64,%esp
    186b:	e8 e0 f2 ff ff       	call   b50 <__x86.get_pc_thunk.bx>
    1870:	81 c3 e8 36 00 00    	add    $0x36e8,%ebx
    1876:	65 a1 14 00 00 00    	mov    %gs:0x14,%eax
    187c:	89 45 f4             	mov    %eax,-0xc(%ebp)
    187f:	31 c0                	xor    %eax,%eax
    1881:	8b 83 cc 03 00 00    	mov    0x3cc(%ebx),%eax
    1887:	83 f8 06             	cmp    $0x6,%eax
    188a:	0f 85 89 00 00 00    	jne    1919 <phase_defused+0xb5>
    1890:	83 ec 0c             	sub    $0xc,%esp
    1893:	8d 45 a4             	lea    -0x5c(%ebp),%eax
    1896:	50                   	push   %eax
    1897:	8d 45 9c             	lea    -0x64(%ebp),%eax
    189a:	50                   	push   %eax
    189b:	8d 45 98             	lea    -0x68(%ebp),%eax
    189e:	50                   	push   %eax
    189f:	8d 83 23 dc ff ff    	lea    -0x23dd(%ebx),%eax
    18a5:	50                   	push   %eax
    18a6:	8d 83 e8 03 00 00    	lea    0x3e8(%ebx),%eax
    18ac:	8d 80 f0 00 00 00    	lea    0xf0(%eax),%eax
    18b2:	50                   	push   %eax
    18b3:	e8 a8 f1 ff ff       	call   a60 <__isoc99_sscanf@plt>
    18b8:	83 c4 20             	add    $0x20,%esp
    18bb:	89 45 a0             	mov    %eax,-0x60(%ebp)
    18be:	83 7d a0 03          	cmpl   $0x3,-0x60(%ebp)
    18c2:	75 43                	jne    1907 <phase_defused+0xa3>
    18c4:	83 ec 08             	sub    $0x8,%esp
    18c7:	8d 83 2c dc ff ff    	lea    -0x23d4(%ebx),%eax
    18cd:	50                   	push   %eax
    18ce:	8d 45 a4             	lea    -0x5c(%ebp),%eax
    18d1:	50                   	push   %eax
    18d2:	e8 64 fc ff ff       	call   153b <strings_not_equal>
    18d7:	83 c4 10             	add    $0x10,%esp
    18da:	85 c0                	test   %eax,%eax
    18dc:	75 29                	jne    1907 <phase_defused+0xa3>
    18de:	83 ec 0c             	sub    $0xc,%esp
    18e1:	8d 83 34 dc ff ff    	lea    -0x23cc(%ebx),%eax
    18e7:	50                   	push   %eax
    18e8:	e8 13 f1 ff ff       	call   a00 <puts@plt>
    18ed:	83 c4 10             	add    $0x10,%esp
    18f0:	83 ec 0c             	sub    $0xc,%esp
    18f3:	8d 83 5c dc ff ff    	lea    -0x23a4(%ebx),%eax
    18f9:	50                   	push   %eax
    18fa:	e8 01 f1 ff ff       	call   a00 <puts@plt>
    18ff:	83 c4 10             	add    $0x10,%esp
    1902:	e8 66 fa ff ff       	call   136d <secret_phase>
    1907:	83 ec 0c             	sub    $0xc,%esp
    190a:	8d 83 94 dc ff ff    	lea    -0x236c(%ebx),%eax
    1910:	50                   	push   %eax
    1911:	e8 ea f0 ff ff       	call   a00 <puts@plt>
    1916:	83 c4 10             	add    $0x10,%esp
    1919:	90                   	nop
    191a:	8b 45 f4             	mov    -0xc(%ebp),%eax
    191d:	65 33 05 14 00 00 00 	xor    %gs:0x14,%eax
    1924:	74 05                	je     192b <phase_defused+0xc7>
    1926:	e8 25 0f 00 00       	call   2850 <__stack_chk_fail_local>
    192b:	8b 5d fc             	mov    -0x4(%ebp),%ebx
    192e:	c9                   	leave  
    192f:	c3                   	ret    

00001930 <sigalrm_handler>:
    1930:	55                   	push   %ebp
    1931:	89 e5                	mov    %esp,%ebp
    1933:	53                   	push   %ebx
    1934:	83 ec 04             	sub    $0x4,%esp
    1937:	e8 14 f2 ff ff       	call   b50 <__x86.get_pc_thunk.bx>
    193c:	81 c3 1c 36 00 00    	add    $0x361c,%ebx
    1942:	8b 83 8c 00 00 00    	mov    0x8c(%ebx),%eax
    1948:	8b 00                	mov    (%eax),%eax
    194a:	83 ec 04             	sub    $0x4,%esp
    194d:	6a 00                	push   $0x0
    194f:	8d 93 c0 dc ff ff    	lea    -0x2340(%ebx),%edx
    1955:	52                   	push   %edx
    1956:	50                   	push   %eax
    1957:	e8 e4 f0 ff ff       	call   a40 <fprintf@plt>
    195c:	83 c4 10             	add    $0x10,%esp
    195f:	83 ec 0c             	sub    $0xc,%esp
    1962:	6a 01                	push   $0x1
    1964:	e8 a7 f0 ff ff       	call   a10 <exit@plt>

00001969 <rio_readinitb>:
    1969:	55                   	push   %ebp
    196a:	89 e5                	mov    %esp,%ebp
    196c:	e8 7b fa ff ff       	call   13ec <__x86.get_pc_thunk.ax>
    1971:	05 e7 35 00 00       	add    $0x35e7,%eax
    1976:	8b 45 08             	mov    0x8(%ebp),%eax
    1979:	8b 55 0c             	mov    0xc(%ebp),%edx
    197c:	89 10                	mov    %edx,(%eax)
    197e:	8b 45 08             	mov    0x8(%ebp),%eax
    1981:	c7 40 04 00 00 00 00 	movl   $0x0,0x4(%eax)
    1988:	8b 45 08             	mov    0x8(%ebp),%eax
    198b:	8d 50 0c             	lea    0xc(%eax),%edx
    198e:	8b 45 08             	mov    0x8(%ebp),%eax
    1991:	89 50 08             	mov    %edx,0x8(%eax)
    1994:	90                   	nop
    1995:	5d                   	pop    %ebp
    1996:	c3                   	ret    

00001997 <rio_read>:
    1997:	55                   	push   %ebp
    1998:	89 e5                	mov    %esp,%ebp
    199a:	53                   	push   %ebx
    199b:	83 ec 14             	sub    $0x14,%esp
    199e:	e8 ad f1 ff ff       	call   b50 <__x86.get_pc_thunk.bx>
    19a3:	81 c3 b5 35 00 00    	add    $0x35b5,%ebx
    19a9:	eb 5f                	jmp    1a0a <rio_read+0x73>
    19ab:	8b 45 08             	mov    0x8(%ebp),%eax
    19ae:	8d 50 0c             	lea    0xc(%eax),%edx
    19b1:	8b 45 08             	mov    0x8(%ebp),%eax
    19b4:	8b 00                	mov    (%eax),%eax
    19b6:	83 ec 04             	sub    $0x4,%esp
    19b9:	68 00 20 00 00       	push   $0x2000
    19be:	52                   	push   %edx
    19bf:	50                   	push   %eax
    19c0:	e8 5b ef ff ff       	call   920 <read@plt>
    19c5:	83 c4 10             	add    $0x10,%esp
    19c8:	89 c2                	mov    %eax,%edx
    19ca:	8b 45 08             	mov    0x8(%ebp),%eax
    19cd:	89 50 04             	mov    %edx,0x4(%eax)
    19d0:	8b 45 08             	mov    0x8(%ebp),%eax
    19d3:	8b 40 04             	mov    0x4(%eax),%eax
    19d6:	85 c0                	test   %eax,%eax
    19d8:	79 13                	jns    19ed <rio_read+0x56>
    19da:	e8 a1 f0 ff ff       	call   a80 <__errno_location@plt>
    19df:	8b 00                	mov    (%eax),%eax
    19e1:	83 f8 04             	cmp    $0x4,%eax
    19e4:	74 24                	je     1a0a <rio_read+0x73>
    19e6:	b8 ff ff ff ff       	mov    $0xffffffff,%eax
    19eb:	eb 7f                	jmp    1a6c <rio_read+0xd5>
    19ed:	8b 45 08             	mov    0x8(%ebp),%eax
    19f0:	8b 40 04             	mov    0x4(%eax),%eax
    19f3:	85 c0                	test   %eax,%eax
    19f5:	75 07                	jne    19fe <rio_read+0x67>
    19f7:	b8 00 00 00 00       	mov    $0x0,%eax
    19fc:	eb 6e                	jmp    1a6c <rio_read+0xd5>
    19fe:	8b 45 08             	mov    0x8(%ebp),%eax
    1a01:	8d 50 0c             	lea    0xc(%eax),%edx
    1a04:	8b 45 08             	mov    0x8(%ebp),%eax
    1a07:	89 50 08             	mov    %edx,0x8(%eax)
    1a0a:	8b 45 08             	mov    0x8(%ebp),%eax
    1a0d:	8b 40 04             	mov    0x4(%eax),%eax
    1a10:	85 c0                	test   %eax,%eax
    1a12:	7e 97                	jle    19ab <rio_read+0x14>
    1a14:	8b 45 10             	mov    0x10(%ebp),%eax
    1a17:	89 45 f4             	mov    %eax,-0xc(%ebp)
    1a1a:	8b 45 08             	mov    0x8(%ebp),%eax
    1a1d:	8b 40 04             	mov    0x4(%eax),%eax
    1a20:	39 45 10             	cmp    %eax,0x10(%ebp)
    1a23:	76 09                	jbe    1a2e <rio_read+0x97>
    1a25:	8b 45 08             	mov    0x8(%ebp),%eax
    1a28:	8b 40 04             	mov    0x4(%eax),%eax
    1a2b:	89 45 f4             	mov    %eax,-0xc(%ebp)
    1a2e:	8b 55 f4             	mov    -0xc(%ebp),%edx
    1a31:	8b 45 08             	mov    0x8(%ebp),%eax
    1a34:	8b 40 08             	mov    0x8(%eax),%eax
    1a37:	83 ec 04             	sub    $0x4,%esp
    1a3a:	52                   	push   %edx
    1a3b:	50                   	push   %eax
    1a3c:	ff 75 0c             	pushl  0xc(%ebp)
    1a3f:	e8 0c ef ff ff       	call   950 <memcpy@plt>
    1a44:	83 c4 10             	add    $0x10,%esp
    1a47:	8b 45 08             	mov    0x8(%ebp),%eax
    1a4a:	8b 50 08             	mov    0x8(%eax),%edx
    1a4d:	8b 45 f4             	mov    -0xc(%ebp),%eax
    1a50:	01 c2                	add    %eax,%edx
    1a52:	8b 45 08             	mov    0x8(%ebp),%eax
    1a55:	89 50 08             	mov    %edx,0x8(%eax)
    1a58:	8b 45 08             	mov    0x8(%ebp),%eax
    1a5b:	8b 40 04             	mov    0x4(%eax),%eax
    1a5e:	2b 45 f4             	sub    -0xc(%ebp),%eax
    1a61:	89 c2                	mov    %eax,%edx
    1a63:	8b 45 08             	mov    0x8(%ebp),%eax
    1a66:	89 50 04             	mov    %edx,0x4(%eax)
    1a69:	8b 45 f4             	mov    -0xc(%ebp),%eax
    1a6c:	8b 5d fc             	mov    -0x4(%ebp),%ebx
    1a6f:	c9                   	leave  
    1a70:	c3                   	ret    

00001a71 <rio_readlineb>:
    1a71:	55                   	push   %ebp
    1a72:	89 e5                	mov    %esp,%ebp
    1a74:	83 ec 38             	sub    $0x38,%esp
    1a77:	e8 70 f9 ff ff       	call   13ec <__x86.get_pc_thunk.ax>
    1a7c:	05 dc 34 00 00       	add    $0x34dc,%eax
    1a81:	8b 45 08             	mov    0x8(%ebp),%eax
    1a84:	89 45 d4             	mov    %eax,-0x2c(%ebp)
    1a87:	8b 45 0c             	mov    0xc(%ebp),%eax
    1a8a:	89 45 d0             	mov    %eax,-0x30(%ebp)
    1a8d:	65 a1 14 00 00 00    	mov    %gs:0x14,%eax
    1a93:	89 45 f4             	mov    %eax,-0xc(%ebp)
    1a96:	31 c0                	xor    %eax,%eax
    1a98:	8b 45 d0             	mov    -0x30(%ebp),%eax
    1a9b:	89 45 ec             	mov    %eax,-0x14(%ebp)
    1a9e:	c7 45 e8 01 00 00 00 	movl   $0x1,-0x18(%ebp)
    1aa5:	eb 54                	jmp    1afb <rio_readlineb+0x8a>
    1aa7:	83 ec 04             	sub    $0x4,%esp
    1aaa:	6a 01                	push   $0x1
    1aac:	8d 45 e7             	lea    -0x19(%ebp),%eax
    1aaf:	50                   	push   %eax
    1ab0:	ff 75 d4             	pushl  -0x2c(%ebp)
    1ab3:	e8 df fe ff ff       	call   1997 <rio_read>
    1ab8:	83 c4 10             	add    $0x10,%esp
    1abb:	89 45 f0             	mov    %eax,-0x10(%ebp)
    1abe:	83 7d f0 01          	cmpl   $0x1,-0x10(%ebp)
    1ac2:	75 19                	jne    1add <rio_readlineb+0x6c>
    1ac4:	8b 45 ec             	mov    -0x14(%ebp),%eax
    1ac7:	8d 50 01             	lea    0x1(%eax),%edx
    1aca:	89 55 ec             	mov    %edx,-0x14(%ebp)
    1acd:	0f b6 55 e7          	movzbl -0x19(%ebp),%edx
    1ad1:	88 10                	mov    %dl,(%eax)
    1ad3:	0f b6 45 e7          	movzbl -0x19(%ebp),%eax
    1ad7:	3c 0a                	cmp    $0xa,%al
    1ad9:	75 1c                	jne    1af7 <rio_readlineb+0x86>
    1adb:	eb 29                	jmp    1b06 <rio_readlineb+0x95>
    1add:	83 7d f0 00          	cmpl   $0x0,-0x10(%ebp)
    1ae1:	75 0d                	jne    1af0 <rio_readlineb+0x7f>
    1ae3:	83 7d e8 01          	cmpl   $0x1,-0x18(%ebp)
    1ae7:	75 1c                	jne    1b05 <rio_readlineb+0x94>
    1ae9:	b8 00 00 00 00       	mov    $0x0,%eax
    1aee:	eb 1f                	jmp    1b0f <rio_readlineb+0x9e>
    1af0:	b8 ff ff ff ff       	mov    $0xffffffff,%eax
    1af5:	eb 18                	jmp    1b0f <rio_readlineb+0x9e>
    1af7:	83 45 e8 01          	addl   $0x1,-0x18(%ebp)
    1afb:	8b 45 e8             	mov    -0x18(%ebp),%eax
    1afe:	39 45 10             	cmp    %eax,0x10(%ebp)
    1b01:	77 a4                	ja     1aa7 <rio_readlineb+0x36>
    1b03:	eb 01                	jmp    1b06 <rio_readlineb+0x95>
    1b05:	90                   	nop
    1b06:	8b 45 ec             	mov    -0x14(%ebp),%eax
    1b09:	c6 00 00             	movb   $0x0,(%eax)
    1b0c:	8b 45 e8             	mov    -0x18(%ebp),%eax
    1b0f:	8b 4d f4             	mov    -0xc(%ebp),%ecx
    1b12:	65 33 0d 14 00 00 00 	xor    %gs:0x14,%ecx
    1b19:	74 05                	je     1b20 <rio_readlineb+0xaf>
    1b1b:	e8 30 0d 00 00       	call   2850 <__stack_chk_fail_local>
    1b20:	c9                   	leave  
    1b21:	c3                   	ret    

00001b22 <rio_writen>:
    1b22:	55                   	push   %ebp
    1b23:	89 e5                	mov    %esp,%ebp
    1b25:	53                   	push   %ebx
    1b26:	83 ec 14             	sub    $0x14,%esp
    1b29:	e8 22 f0 ff ff       	call   b50 <__x86.get_pc_thunk.bx>
    1b2e:	81 c3 2a 34 00 00    	add    $0x342a,%ebx
    1b34:	8b 45 10             	mov    0x10(%ebp),%eax
    1b37:	89 45 ec             	mov    %eax,-0x14(%ebp)
    1b3a:	8b 45 0c             	mov    0xc(%ebp),%eax
    1b3d:	89 45 f4             	mov    %eax,-0xc(%ebp)
    1b40:	eb 45                	jmp    1b87 <rio_writen+0x65>
    1b42:	83 ec 04             	sub    $0x4,%esp
    1b45:	ff 75 ec             	pushl  -0x14(%ebp)
    1b48:	ff 75 f4             	pushl  -0xc(%ebp)
    1b4b:	ff 75 08             	pushl  0x8(%ebp)
    1b4e:	e8 fd ee ff ff       	call   a50 <write@plt>
    1b53:	83 c4 10             	add    $0x10,%esp
    1b56:	89 45 f0             	mov    %eax,-0x10(%ebp)
    1b59:	83 7d f0 00          	cmpl   $0x0,-0x10(%ebp)
    1b5d:	7f 1c                	jg     1b7b <rio_writen+0x59>
    1b5f:	e8 1c ef ff ff       	call   a80 <__errno_location@plt>
    1b64:	8b 00                	mov    (%eax),%eax
    1b66:	83 f8 04             	cmp    $0x4,%eax
    1b69:	75 09                	jne    1b74 <rio_writen+0x52>
    1b6b:	c7 45 f0 00 00 00 00 	movl   $0x0,-0x10(%ebp)
    1b72:	eb 07                	jmp    1b7b <rio_writen+0x59>
    1b74:	b8 ff ff ff ff       	mov    $0xffffffff,%eax
    1b79:	eb 15                	jmp    1b90 <rio_writen+0x6e>
    1b7b:	8b 45 f0             	mov    -0x10(%ebp),%eax
    1b7e:	29 45 ec             	sub    %eax,-0x14(%ebp)
    1b81:	8b 45 f0             	mov    -0x10(%ebp),%eax
    1b84:	01 45 f4             	add    %eax,-0xc(%ebp)
    1b87:	83 7d ec 00          	cmpl   $0x0,-0x14(%ebp)
    1b8b:	75 b5                	jne    1b42 <rio_writen+0x20>
    1b8d:	8b 45 10             	mov    0x10(%ebp),%eax
    1b90:	8b 5d fc             	mov    -0x4(%ebp),%ebx
    1b93:	c9                   	leave  
    1b94:	c3                   	ret    

00001b95 <urlencode>:
    1b95:	55                   	push   %ebp
    1b96:	89 e5                	mov    %esp,%ebp
    1b98:	53                   	push   %ebx
    1b99:	83 ec 24             	sub    $0x24,%esp
    1b9c:	e8 af ef ff ff       	call   b50 <__x86.get_pc_thunk.bx>
    1ba1:	81 c3 b7 33 00 00    	add    $0x33b7,%ebx
    1ba7:	8b 45 08             	mov    0x8(%ebp),%eax
    1baa:	89 45 e4             	mov    %eax,-0x1c(%ebp)
    1bad:	8b 45 0c             	mov    0xc(%ebp),%eax
    1bb0:	89 45 e0             	mov    %eax,-0x20(%ebp)
    1bb3:	65 a1 14 00 00 00    	mov    %gs:0x14,%eax
    1bb9:	89 45 f4             	mov    %eax,-0xc(%ebp)
    1bbc:	31 c0                	xor    %eax,%eax
    1bbe:	83 ec 0c             	sub    $0xc,%esp
    1bc1:	ff 75 e4             	pushl  -0x1c(%ebp)
    1bc4:	e8 57 ee ff ff       	call   a20 <strlen@plt>
    1bc9:	83 c4 10             	add    $0x10,%esp
    1bcc:	89 45 e8             	mov    %eax,-0x18(%ebp)
    1bcf:	e9 10 01 00 00       	jmp    1ce4 <urlencode+0x14f>
    1bd4:	8b 45 e4             	mov    -0x1c(%ebp),%eax
    1bd7:	0f b6 00             	movzbl (%eax),%eax
    1bda:	3c 2a                	cmp    $0x2a,%al
    1bdc:	74 5a                	je     1c38 <urlencode+0xa3>
    1bde:	8b 45 e4             	mov    -0x1c(%ebp),%eax
    1be1:	0f b6 00             	movzbl (%eax),%eax
    1be4:	3c 2d                	cmp    $0x2d,%al
    1be6:	74 50                	je     1c38 <urlencode+0xa3>
    1be8:	8b 45 e4             	mov    -0x1c(%ebp),%eax
    1beb:	0f b6 00             	movzbl (%eax),%eax
    1bee:	3c 2e                	cmp    $0x2e,%al
    1bf0:	74 46                	je     1c38 <urlencode+0xa3>
    1bf2:	8b 45 e4             	mov    -0x1c(%ebp),%eax
    1bf5:	0f b6 00             	movzbl (%eax),%eax
    1bf8:	3c 5f                	cmp    $0x5f,%al
    1bfa:	74 3c                	je     1c38 <urlencode+0xa3>
    1bfc:	8b 45 e4             	mov    -0x1c(%ebp),%eax
    1bff:	0f b6 00             	movzbl (%eax),%eax
    1c02:	3c 2f                	cmp    $0x2f,%al
    1c04:	76 0a                	jbe    1c10 <urlencode+0x7b>
    1c06:	8b 45 e4             	mov    -0x1c(%ebp),%eax
    1c09:	0f b6 00             	movzbl (%eax),%eax
    1c0c:	3c 39                	cmp    $0x39,%al
    1c0e:	76 28                	jbe    1c38 <urlencode+0xa3>
    1c10:	8b 45 e4             	mov    -0x1c(%ebp),%eax
    1c13:	0f b6 00             	movzbl (%eax),%eax
    1c16:	3c 40                	cmp    $0x40,%al
    1c18:	76 0a                	jbe    1c24 <urlencode+0x8f>
    1c1a:	8b 45 e4             	mov    -0x1c(%ebp),%eax
    1c1d:	0f b6 00             	movzbl (%eax),%eax
    1c20:	3c 5a                	cmp    $0x5a,%al
    1c22:	76 14                	jbe    1c38 <urlencode+0xa3>
    1c24:	8b 45 e4             	mov    -0x1c(%ebp),%eax
    1c27:	0f b6 00             	movzbl (%eax),%eax
    1c2a:	3c 60                	cmp    $0x60,%al
    1c2c:	76 20                	jbe    1c4e <urlencode+0xb9>
    1c2e:	8b 45 e4             	mov    -0x1c(%ebp),%eax
    1c31:	0f b6 00             	movzbl (%eax),%eax
    1c34:	3c 7a                	cmp    $0x7a,%al
    1c36:	77 16                	ja     1c4e <urlencode+0xb9>
    1c38:	8b 45 e0             	mov    -0x20(%ebp),%eax
    1c3b:	8d 50 01             	lea    0x1(%eax),%edx
    1c3e:	89 55 e0             	mov    %edx,-0x20(%ebp)
    1c41:	8b 55 e4             	mov    -0x1c(%ebp),%edx
    1c44:	0f b6 12             	movzbl (%edx),%edx
    1c47:	88 10                	mov    %dl,(%eax)
    1c49:	e9 92 00 00 00       	jmp    1ce0 <urlencode+0x14b>
    1c4e:	8b 45 e4             	mov    -0x1c(%ebp),%eax
    1c51:	0f b6 00             	movzbl (%eax),%eax
    1c54:	3c 20                	cmp    $0x20,%al
    1c56:	75 0e                	jne    1c66 <urlencode+0xd1>
    1c58:	8b 45 e0             	mov    -0x20(%ebp),%eax
    1c5b:	8d 50 01             	lea    0x1(%eax),%edx
    1c5e:	89 55 e0             	mov    %edx,-0x20(%ebp)
    1c61:	c6 00 2b             	movb   $0x2b,(%eax)
    1c64:	eb 7a                	jmp    1ce0 <urlencode+0x14b>
    1c66:	8b 45 e4             	mov    -0x1c(%ebp),%eax
    1c69:	0f b6 00             	movzbl (%eax),%eax
    1c6c:	3c 1f                	cmp    $0x1f,%al
    1c6e:	76 0a                	jbe    1c7a <urlencode+0xe5>
    1c70:	8b 45 e4             	mov    -0x1c(%ebp),%eax
    1c73:	0f b6 00             	movzbl (%eax),%eax
    1c76:	84 c0                	test   %al,%al
    1c78:	79 0a                	jns    1c84 <urlencode+0xef>
    1c7a:	8b 45 e4             	mov    -0x1c(%ebp),%eax
    1c7d:	0f b6 00             	movzbl (%eax),%eax
    1c80:	3c 09                	cmp    $0x9,%al
    1c82:	75 55                	jne    1cd9 <urlencode+0x144>
    1c84:	8b 45 e4             	mov    -0x1c(%ebp),%eax
    1c87:	0f b6 00             	movzbl (%eax),%eax
    1c8a:	0f b6 c0             	movzbl %al,%eax
    1c8d:	83 ec 04             	sub    $0x4,%esp
    1c90:	50                   	push   %eax
    1c91:	8d 83 e4 dc ff ff    	lea    -0x231c(%ebx),%eax
    1c97:	50                   	push   %eax
    1c98:	8d 45 ec             	lea    -0x14(%ebp),%eax
    1c9b:	50                   	push   %eax
    1c9c:	e8 ef ed ff ff       	call   a90 <sprintf@plt>
    1ca1:	83 c4 10             	add    $0x10,%esp
    1ca4:	0f b6 4d ec          	movzbl -0x14(%ebp),%ecx
    1ca8:	8b 45 e0             	mov    -0x20(%ebp),%eax
    1cab:	8d 50 01             	lea    0x1(%eax),%edx
    1cae:	89 55 e0             	mov    %edx,-0x20(%ebp)
    1cb1:	89 ca                	mov    %ecx,%edx
    1cb3:	88 10                	mov    %dl,(%eax)
    1cb5:	0f b6 4d ed          	movzbl -0x13(%ebp),%ecx
    1cb9:	8b 45 e0             	mov    -0x20(%ebp),%eax
    1cbc:	8d 50 01             	lea    0x1(%eax),%edx
    1cbf:	89 55 e0             	mov    %edx,-0x20(%ebp)
    1cc2:	89 ca                	mov    %ecx,%edx
    1cc4:	88 10                	mov    %dl,(%eax)
    1cc6:	0f b6 4d ee          	movzbl -0x12(%ebp),%ecx
    1cca:	8b 45 e0             	mov    -0x20(%ebp),%eax
    1ccd:	8d 50 01             	lea    0x1(%eax),%edx
    1cd0:	89 55 e0             	mov    %edx,-0x20(%ebp)
    1cd3:	89 ca                	mov    %ecx,%edx
    1cd5:	88 10                	mov    %dl,(%eax)
    1cd7:	eb 07                	jmp    1ce0 <urlencode+0x14b>
    1cd9:	b8 ff ff ff ff       	mov    $0xffffffff,%eax
    1cde:	eb 1a                	jmp    1cfa <urlencode+0x165>
    1ce0:	83 45 e4 01          	addl   $0x1,-0x1c(%ebp)
    1ce4:	8b 45 e8             	mov    -0x18(%ebp),%eax
    1ce7:	8d 50 ff             	lea    -0x1(%eax),%edx
    1cea:	89 55 e8             	mov    %edx,-0x18(%ebp)
    1ced:	85 c0                	test   %eax,%eax
    1cef:	0f 85 df fe ff ff    	jne    1bd4 <urlencode+0x3f>
    1cf5:	b8 00 00 00 00       	mov    $0x0,%eax
    1cfa:	8b 4d f4             	mov    -0xc(%ebp),%ecx
    1cfd:	65 33 0d 14 00 00 00 	xor    %gs:0x14,%ecx
    1d04:	74 05                	je     1d0b <urlencode+0x176>
    1d06:	e8 45 0b 00 00       	call   2850 <__stack_chk_fail_local>
    1d0b:	8b 5d fc             	mov    -0x4(%ebp),%ebx
    1d0e:	c9                   	leave  
    1d0f:	c3                   	ret    

00001d10 <submitr>:
    1d10:	55                   	push   %ebp
    1d11:	89 e5                	mov    %esp,%ebp
    1d13:	57                   	push   %edi
    1d14:	56                   	push   %esi
    1d15:	53                   	push   %ebx
    1d16:	81 ec 6c a0 00 00    	sub    $0xa06c,%esp
    1d1c:	e8 2f ee ff ff       	call   b50 <__x86.get_pc_thunk.bx>
    1d21:	81 c3 37 32 00 00    	add    $0x3237,%ebx
    1d27:	8b 45 08             	mov    0x8(%ebp),%eax
    1d2a:	89 85 a4 5f ff ff    	mov    %eax,-0xa05c(%ebp)
    1d30:	8b 45 10             	mov    0x10(%ebp),%eax
    1d33:	89 85 a0 5f ff ff    	mov    %eax,-0xa060(%ebp)
    1d39:	8b 45 14             	mov    0x14(%ebp),%eax
    1d3c:	89 85 9c 5f ff ff    	mov    %eax,-0xa064(%ebp)
    1d42:	8b 45 18             	mov    0x18(%ebp),%eax
    1d45:	89 85 98 5f ff ff    	mov    %eax,-0xa068(%ebp)
    1d4b:	8b 45 1c             	mov    0x1c(%ebp),%eax
    1d4e:	89 85 94 5f ff ff    	mov    %eax,-0xa06c(%ebp)
    1d54:	8b 45 20             	mov    0x20(%ebp),%eax
    1d57:	89 85 90 5f ff ff    	mov    %eax,-0xa070(%ebp)
    1d5d:	8b 45 24             	mov    0x24(%ebp),%eax
    1d60:	89 85 8c 5f ff ff    	mov    %eax,-0xa074(%ebp)
    1d66:	65 a1 14 00 00 00    	mov    %gs:0x14,%eax
    1d6c:	89 45 e4             	mov    %eax,-0x1c(%ebp)
    1d6f:	31 c0                	xor    %eax,%eax
    1d71:	c7 85 b4 5f ff ff 00 	movl   $0x0,-0xa04c(%ebp)
    1d78:	00 00 00 
    1d7b:	83 ec 04             	sub    $0x4,%esp
    1d7e:	6a 00                	push   $0x0
    1d80:	6a 01                	push   $0x1
    1d82:	6a 02                	push   $0x2
    1d84:	e8 27 ed ff ff       	call   ab0 <socket@plt>
    1d89:	83 c4 10             	add    $0x10,%esp
    1d8c:	89 85 b8 5f ff ff    	mov    %eax,-0xa048(%ebp)
    1d92:	83 bd b8 5f ff ff 00 	cmpl   $0x0,-0xa048(%ebp)
    1d99:	79 54                	jns    1def <submitr+0xdf>
    1d9b:	8b 85 8c 5f ff ff    	mov    -0xa074(%ebp),%eax
    1da1:	c7 00 45 72 72 6f    	movl   $0x6f727245,(%eax)
    1da7:	c7 40 04 72 3a 20 43 	movl   $0x43203a72,0x4(%eax)
    1dae:	c7 40 08 6c 69 65 6e 	movl   $0x6e65696c,0x8(%eax)
    1db5:	c7 40 0c 74 20 75 6e 	movl   $0x6e752074,0xc(%eax)
    1dbc:	c7 40 10 61 62 6c 65 	movl   $0x656c6261,0x10(%eax)
    1dc3:	c7 40 14 20 74 6f 20 	movl   $0x206f7420,0x14(%eax)
    1dca:	c7 40 18 63 72 65 61 	movl   $0x61657263,0x18(%eax)
    1dd1:	c7 40 1c 74 65 20 73 	movl   $0x73206574,0x1c(%eax)
    1dd8:	c7 40 20 6f 63 6b 65 	movl   $0x656b636f,0x20(%eax)
    1ddf:	66 c7 40 24 74 00    	movw   $0x74,0x24(%eax)
    1de5:	b8 ff ff ff ff       	mov    $0xffffffff,%eax
    1dea:	e9 bf 06 00 00       	jmp    24ae <submitr+0x79e>
    1def:	83 ec 0c             	sub    $0xc,%esp
    1df2:	ff b5 a4 5f ff ff    	pushl  -0xa05c(%ebp)
    1df8:	e8 c3 ec ff ff       	call   ac0 <gethostbyname@plt>
    1dfd:	83 c4 10             	add    $0x10,%esp
    1e00:	89 85 bc 5f ff ff    	mov    %eax,-0xa044(%ebp)
    1e06:	83 bd bc 5f ff ff 00 	cmpl   $0x0,-0xa044(%ebp)
    1e0d:	75 77                	jne    1e86 <submitr+0x176>
    1e0f:	8b 85 8c 5f ff ff    	mov    -0xa074(%ebp),%eax
    1e15:	c7 00 45 72 72 6f    	movl   $0x6f727245,(%eax)
    1e1b:	c7 40 04 72 3a 20 44 	movl   $0x44203a72,0x4(%eax)
    1e22:	c7 40 08 4e 53 20 69 	movl   $0x6920534e,0x8(%eax)
    1e29:	c7 40 0c 73 20 75 6e 	movl   $0x6e752073,0xc(%eax)
    1e30:	c7 40 10 61 62 6c 65 	movl   $0x656c6261,0x10(%eax)
    1e37:	c7 40 14 20 74 6f 20 	movl   $0x206f7420,0x14(%eax)
    1e3e:	c7 40 18 72 65 73 6f 	movl   $0x6f736572,0x18(%eax)
    1e45:	c7 40 1c 6c 76 65 20 	movl   $0x2065766c,0x1c(%eax)
    1e4c:	c7 40 20 73 65 72 76 	movl   $0x76726573,0x20(%eax)
    1e53:	c7 40 24 65 72 20 61 	movl   $0x61207265,0x24(%eax)
    1e5a:	c7 40 28 64 64 72 65 	movl   $0x65726464,0x28(%eax)
    1e61:	66 c7 40 2c 73 73    	movw   $0x7373,0x2c(%eax)
    1e67:	c6 40 2e 00          	movb   $0x0,0x2e(%eax)
    1e6b:	83 ec 0c             	sub    $0xc,%esp
    1e6e:	ff b5 b8 5f ff ff    	pushl  -0xa048(%ebp)
    1e74:	e8 67 ec ff ff       	call   ae0 <close@plt>
    1e79:	83 c4 10             	add    $0x10,%esp
    1e7c:	b8 ff ff ff ff       	mov    $0xffffffff,%eax
    1e81:	e9 28 06 00 00       	jmp    24ae <submitr+0x79e>
    1e86:	83 ec 08             	sub    $0x8,%esp
    1e89:	6a 10                	push   $0x10
    1e8b:	8d 85 c8 5f ff ff    	lea    -0xa038(%ebp),%eax
    1e91:	50                   	push   %eax
    1e92:	e8 c9 ea ff ff       	call   960 <bzero@plt>
    1e97:	83 c4 10             	add    $0x10,%esp
    1e9a:	66 c7 85 c8 5f ff ff 	movw   $0x2,-0xa038(%ebp)
    1ea1:	02 00 
    1ea3:	8b 85 bc 5f ff ff    	mov    -0xa044(%ebp),%eax
    1ea9:	8b 40 0c             	mov    0xc(%eax),%eax
    1eac:	89 c2                	mov    %eax,%edx
    1eae:	8b 85 bc 5f ff ff    	mov    -0xa044(%ebp),%eax
    1eb4:	8b 40 10             	mov    0x10(%eax),%eax
    1eb7:	8b 00                	mov    (%eax),%eax
    1eb9:	83 ec 04             	sub    $0x4,%esp
    1ebc:	52                   	push   %edx
    1ebd:	8d 95 c8 5f ff ff    	lea    -0xa038(%ebp),%edx
    1ec3:	83 c2 04             	add    $0x4,%edx
    1ec6:	52                   	push   %edx
    1ec7:	50                   	push   %eax
    1ec8:	e8 03 eb ff ff       	call   9d0 <bcopy@plt>
    1ecd:	83 c4 10             	add    $0x10,%esp
    1ed0:	8b 45 0c             	mov    0xc(%ebp),%eax
    1ed3:	0f b7 c0             	movzwl %ax,%eax
    1ed6:	83 ec 0c             	sub    $0xc,%esp
    1ed9:	50                   	push   %eax
    1eda:	e8 e1 ea ff ff       	call   9c0 <htons@plt>
    1edf:	83 c4 10             	add    $0x10,%esp
    1ee2:	66 89 85 ca 5f ff ff 	mov    %ax,-0xa036(%ebp)
    1ee9:	83 ec 04             	sub    $0x4,%esp
    1eec:	6a 10                	push   $0x10
    1eee:	8d 85 c8 5f ff ff    	lea    -0xa038(%ebp),%eax
    1ef4:	50                   	push   %eax
    1ef5:	ff b5 b8 5f ff ff    	pushl  -0xa048(%ebp)
    1efb:	e8 d0 eb ff ff       	call   ad0 <connect@plt>
    1f00:	83 c4 10             	add    $0x10,%esp
    1f03:	85 c0                	test   %eax,%eax
    1f05:	79 69                	jns    1f70 <submitr+0x260>
    1f07:	8b 85 8c 5f ff ff    	mov    -0xa074(%ebp),%eax
    1f0d:	c7 00 45 72 72 6f    	movl   $0x6f727245,(%eax)
    1f13:	c7 40 04 72 3a 20 55 	movl   $0x55203a72,0x4(%eax)
    1f1a:	c7 40 08 6e 61 62 6c 	movl   $0x6c62616e,0x8(%eax)
    1f21:	c7 40 0c 65 20 74 6f 	movl   $0x6f742065,0xc(%eax)
    1f28:	c7 40 10 20 63 6f 6e 	movl   $0x6e6f6320,0x10(%eax)
    1f2f:	c7 40 14 6e 65 63 74 	movl   $0x7463656e,0x14(%eax)
    1f36:	c7 40 18 20 74 6f 20 	movl   $0x206f7420,0x18(%eax)
    1f3d:	c7 40 1c 74 68 65 20 	movl   $0x20656874,0x1c(%eax)
    1f44:	c7 40 20 73 65 72 76 	movl   $0x76726573,0x20(%eax)
    1f4b:	66 c7 40 24 65 72    	movw   $0x7265,0x24(%eax)
    1f51:	c6 40 26 00          	movb   $0x0,0x26(%eax)
    1f55:	83 ec 0c             	sub    $0xc,%esp
    1f58:	ff b5 b8 5f ff ff    	pushl  -0xa048(%ebp)
    1f5e:	e8 7d eb ff ff       	call   ae0 <close@plt>
    1f63:	83 c4 10             	add    $0x10,%esp
    1f66:	b8 ff ff ff ff       	mov    $0xffffffff,%eax
    1f6b:	e9 3e 05 00 00       	jmp    24ae <submitr+0x79e>
    1f70:	83 ec 0c             	sub    $0xc,%esp
    1f73:	ff b5 90 5f ff ff    	pushl  -0xa070(%ebp)
    1f79:	e8 a2 ea ff ff       	call   a20 <strlen@plt>
    1f7e:	83 c4 10             	add    $0x10,%esp
    1f81:	89 85 c0 5f ff ff    	mov    %eax,-0xa040(%ebp)
    1f87:	83 ec 0c             	sub    $0xc,%esp
    1f8a:	ff b5 a0 5f ff ff    	pushl  -0xa060(%ebp)
    1f90:	e8 8b ea ff ff       	call   a20 <strlen@plt>
    1f95:	83 c4 10             	add    $0x10,%esp
    1f98:	89 c6                	mov    %eax,%esi
    1f9a:	83 ec 0c             	sub    $0xc,%esp
    1f9d:	ff b5 9c 5f ff ff    	pushl  -0xa064(%ebp)
    1fa3:	e8 78 ea ff ff       	call   a20 <strlen@plt>
    1fa8:	83 c4 10             	add    $0x10,%esp
    1fab:	01 c6                	add    %eax,%esi
    1fad:	83 ec 0c             	sub    $0xc,%esp
    1fb0:	ff b5 94 5f ff ff    	pushl  -0xa06c(%ebp)
    1fb6:	e8 65 ea ff ff       	call   a20 <strlen@plt>
    1fbb:	83 c4 10             	add    $0x10,%esp
    1fbe:	8d 0c 06             	lea    (%esi,%eax,1),%ecx
    1fc1:	8b 95 c0 5f ff ff    	mov    -0xa040(%ebp),%edx
    1fc7:	89 d0                	mov    %edx,%eax
    1fc9:	01 c0                	add    %eax,%eax
    1fcb:	01 d0                	add    %edx,%eax
    1fcd:	01 c8                	add    %ecx,%eax
    1fcf:	83 e8 80             	sub    $0xffffff80,%eax
    1fd2:	89 85 c4 5f ff ff    	mov    %eax,-0xa03c(%ebp)
    1fd8:	81 bd c4 5f ff ff 00 	cmpl   $0x2000,-0xa03c(%ebp)
    1fdf:	20 00 00 
    1fe2:	0f 86 82 00 00 00    	jbe    206a <submitr+0x35a>
    1fe8:	8b 85 8c 5f ff ff    	mov    -0xa074(%ebp),%eax
    1fee:	c7 00 45 72 72 6f    	movl   $0x6f727245,(%eax)
    1ff4:	c7 40 04 72 3a 20 52 	movl   $0x52203a72,0x4(%eax)
    1ffb:	c7 40 08 65 73 75 6c 	movl   $0x6c757365,0x8(%eax)
    2002:	c7 40 0c 74 20 73 74 	movl   $0x74732074,0xc(%eax)
    2009:	c7 40 10 72 69 6e 67 	movl   $0x676e6972,0x10(%eax)
    2010:	c7 40 14 20 74 6f 6f 	movl   $0x6f6f7420,0x14(%eax)
    2017:	c7 40 18 20 6c 61 72 	movl   $0x72616c20,0x18(%eax)
    201e:	c7 40 1c 67 65 2e 20 	movl   $0x202e6567,0x1c(%eax)
    2025:	c7 40 20 49 6e 63 72 	movl   $0x72636e49,0x20(%eax)
    202c:	c7 40 24 65 61 73 65 	movl   $0x65736165,0x24(%eax)
    2033:	c7 40 28 20 53 55 42 	movl   $0x42555320,0x28(%eax)
    203a:	c7 40 2c 4d 49 54 52 	movl   $0x5254494d,0x2c(%eax)
    2041:	c7 40 30 5f 4d 41 58 	movl   $0x58414d5f,0x30(%eax)
    2048:	c7 40 34 42 55 46 00 	movl   $0x465542,0x34(%eax)
    204f:	83 ec 0c             	sub    $0xc,%esp
    2052:	ff b5 b8 5f ff ff    	pushl  -0xa048(%ebp)
    2058:	e8 83 ea ff ff       	call   ae0 <close@plt>
    205d:	83 c4 10             	add    $0x10,%esp
    2060:	b8 ff ff ff ff       	mov    $0xffffffff,%eax
    2065:	e9 44 04 00 00       	jmp    24ae <submitr+0x79e>
    206a:	83 ec 08             	sub    $0x8,%esp
    206d:	68 00 20 00 00       	push   $0x2000
    2072:	8d 85 e4 9f ff ff    	lea    -0x601c(%ebp),%eax
    2078:	50                   	push   %eax
    2079:	e8 e2 e8 ff ff       	call   960 <bzero@plt>
    207e:	83 c4 10             	add    $0x10,%esp
    2081:	83 ec 08             	sub    $0x8,%esp
    2084:	8d 85 e4 9f ff ff    	lea    -0x601c(%ebp),%eax
    208a:	50                   	push   %eax
    208b:	ff b5 90 5f ff ff    	pushl  -0xa070(%ebp)
    2091:	e8 ff fa ff ff       	call   1b95 <urlencode>
    2096:	83 c4 10             	add    $0x10,%esp
    2099:	85 c0                	test   %eax,%eax
    209b:	79 54                	jns    20f1 <submitr+0x3e1>
    209d:	8b 85 8c 5f ff ff    	mov    -0xa074(%ebp),%eax
    20a3:	89 c2                	mov    %eax,%edx
    20a5:	8d 83 ec dc ff ff    	lea    -0x2314(%ebx),%eax
    20ab:	b9 43 00 00 00       	mov    $0x43,%ecx
    20b0:	8b 30                	mov    (%eax),%esi
    20b2:	89 32                	mov    %esi,(%edx)
    20b4:	8b 74 08 fc          	mov    -0x4(%eax,%ecx,1),%esi
    20b8:	89 74 0a fc          	mov    %esi,-0x4(%edx,%ecx,1)
    20bc:	8d 7a 04             	lea    0x4(%edx),%edi
    20bf:	83 e7 fc             	and    $0xfffffffc,%edi
    20c2:	29 fa                	sub    %edi,%edx
    20c4:	29 d0                	sub    %edx,%eax
    20c6:	01 d1                	add    %edx,%ecx
    20c8:	83 e1 fc             	and    $0xfffffffc,%ecx
    20cb:	c1 e9 02             	shr    $0x2,%ecx
    20ce:	89 ca                	mov    %ecx,%edx
    20d0:	89 c6                	mov    %eax,%esi
    20d2:	89 d1                	mov    %edx,%ecx
    20d4:	f3 a5                	rep movsl %ds:(%esi),%es:(%edi)
    20d6:	83 ec 0c             	sub    $0xc,%esp
    20d9:	ff b5 b8 5f ff ff    	pushl  -0xa048(%ebp)
    20df:	e8 fc e9 ff ff       	call   ae0 <close@plt>
    20e4:	83 c4 10             	add    $0x10,%esp
    20e7:	b8 ff ff ff ff       	mov    $0xffffffff,%eax
    20ec:	e9 bd 03 00 00       	jmp    24ae <submitr+0x79e>
    20f1:	83 ec 04             	sub    $0x4,%esp
    20f4:	8d 85 e4 9f ff ff    	lea    -0x601c(%ebp),%eax
    20fa:	50                   	push   %eax
    20fb:	ff b5 94 5f ff ff    	pushl  -0xa06c(%ebp)
    2101:	ff b5 98 5f ff ff    	pushl  -0xa068(%ebp)
    2107:	ff b5 9c 5f ff ff    	pushl  -0xa064(%ebp)
    210d:	ff b5 a0 5f ff ff    	pushl  -0xa060(%ebp)
    2113:	8d 83 30 dd ff ff    	lea    -0x22d0(%ebx),%eax
    2119:	50                   	push   %eax
    211a:	8d 85 e4 7f ff ff    	lea    -0x801c(%ebp),%eax
    2120:	50                   	push   %eax
    2121:	e8 6a e9 ff ff       	call   a90 <sprintf@plt>
    2126:	83 c4 20             	add    $0x20,%esp
    2129:	83 ec 0c             	sub    $0xc,%esp
    212c:	8d 85 e4 7f ff ff    	lea    -0x801c(%ebp),%eax
    2132:	50                   	push   %eax
    2133:	e8 e8 e8 ff ff       	call   a20 <strlen@plt>
    2138:	83 c4 10             	add    $0x10,%esp
    213b:	83 ec 04             	sub    $0x4,%esp
    213e:	50                   	push   %eax
    213f:	8d 85 e4 7f ff ff    	lea    -0x801c(%ebp),%eax
    2145:	50                   	push   %eax
    2146:	ff b5 b8 5f ff ff    	pushl  -0xa048(%ebp)
    214c:	e8 d1 f9 ff ff       	call   1b22 <rio_writen>
    2151:	83 c4 10             	add    $0x10,%esp
    2154:	85 c0                	test   %eax,%eax
    2156:	79 6d                	jns    21c5 <submitr+0x4b5>
    2158:	8b 85 8c 5f ff ff    	mov    -0xa074(%ebp),%eax
    215e:	c7 00 45 72 72 6f    	movl   $0x6f727245,(%eax)
    2164:	c7 40 04 72 3a 20 43 	movl   $0x43203a72,0x4(%eax)
    216b:	c7 40 08 6c 69 65 6e 	movl   $0x6e65696c,0x8(%eax)
    2172:	c7 40 0c 74 20 75 6e 	movl   $0x6e752074,0xc(%eax)
    2179:	c7 40 10 61 62 6c 65 	movl   $0x656c6261,0x10(%eax)
    2180:	c7 40 14 20 74 6f 20 	movl   $0x206f7420,0x14(%eax)
    2187:	c7 40 18 77 72 69 74 	movl   $0x74697277,0x18(%eax)
    218e:	c7 40 1c 65 20 74 6f 	movl   $0x6f742065,0x1c(%eax)
    2195:	c7 40 20 20 74 68 65 	movl   $0x65687420,0x20(%eax)
    219c:	c7 40 24 20 73 65 72 	movl   $0x72657320,0x24(%eax)
    21a3:	c7 40 28 76 65 72 00 	movl   $0x726576,0x28(%eax)
    21aa:	83 ec 0c             	sub    $0xc,%esp
    21ad:	ff b5 b8 5f ff ff    	pushl  -0xa048(%ebp)
    21b3:	e8 28 e9 ff ff       	call   ae0 <close@plt>
    21b8:	83 c4 10             	add    $0x10,%esp
    21bb:	b8 ff ff ff ff       	mov    $0xffffffff,%eax
    21c0:	e9 e9 02 00 00       	jmp    24ae <submitr+0x79e>
    21c5:	83 ec 08             	sub    $0x8,%esp
    21c8:	ff b5 b8 5f ff ff    	pushl  -0xa048(%ebp)
    21ce:	8d 85 d8 5f ff ff    	lea    -0xa028(%ebp),%eax
    21d4:	50                   	push   %eax
    21d5:	e8 8f f7 ff ff       	call   1969 <rio_readinitb>
    21da:	83 c4 10             	add    $0x10,%esp
    21dd:	83 ec 04             	sub    $0x4,%esp
    21e0:	68 00 20 00 00       	push   $0x2000
    21e5:	8d 85 e4 7f ff ff    	lea    -0x801c(%ebp),%eax
    21eb:	50                   	push   %eax
    21ec:	8d 85 d8 5f ff ff    	lea    -0xa028(%ebp),%eax
    21f2:	50                   	push   %eax
    21f3:	e8 79 f8 ff ff       	call   1a71 <rio_readlineb>
    21f8:	83 c4 10             	add    $0x10,%esp
    21fb:	85 c0                	test   %eax,%eax
    21fd:	0f 8f 81 00 00 00    	jg     2284 <submitr+0x574>
    2203:	8b 85 8c 5f ff ff    	mov    -0xa074(%ebp),%eax
    2209:	c7 00 45 72 72 6f    	movl   $0x6f727245,(%eax)
    220f:	c7 40 04 72 3a 20 43 	movl   $0x43203a72,0x4(%eax)
    2216:	c7 40 08 6c 69 65 6e 	movl   $0x6e65696c,0x8(%eax)
    221d:	c7 40 0c 74 20 75 6e 	movl   $0x6e752074,0xc(%eax)
    2224:	c7 40 10 61 62 6c 65 	movl   $0x656c6261,0x10(%eax)
    222b:	c7 40 14 20 74 6f 20 	movl   $0x206f7420,0x14(%eax)
    2232:	c7 40 18 72 65 61 64 	movl   $0x64616572,0x18(%eax)
    2239:	c7 40 1c 20 66 69 72 	movl   $0x72696620,0x1c(%eax)
    2240:	c7 40 20 73 74 20 68 	movl   $0x68207473,0x20(%eax)
    2247:	c7 40 24 65 61 64 65 	movl   $0x65646165,0x24(%eax)
    224e:	c7 40 28 72 20 66 72 	movl   $0x72662072,0x28(%eax)
    2255:	c7 40 2c 6f 6d 20 73 	movl   $0x73206d6f,0x2c(%eax)
    225c:	c7 40 30 65 72 76 65 	movl   $0x65767265,0x30(%eax)
    2263:	66 c7 40 34 72 00    	movw   $0x72,0x34(%eax)
    2269:	83 ec 0c             	sub    $0xc,%esp
    226c:	ff b5 b8 5f ff ff    	pushl  -0xa048(%ebp)
    2272:	e8 69 e8 ff ff       	call   ae0 <close@plt>
    2277:	83 c4 10             	add    $0x10,%esp
    227a:	b8 ff ff ff ff       	mov    $0xffffffff,%eax
    227f:	e9 2a 02 00 00       	jmp    24ae <submitr+0x79e>
    2284:	83 ec 0c             	sub    $0xc,%esp
    2287:	8d 85 e4 df ff ff    	lea    -0x201c(%ebp),%eax
    228d:	50                   	push   %eax
    228e:	8d 85 b4 5f ff ff    	lea    -0xa04c(%ebp),%eax
    2294:	50                   	push   %eax
    2295:	8d 85 e4 bf ff ff    	lea    -0x401c(%ebp),%eax
    229b:	50                   	push   %eax
    229c:	8d 83 85 dd ff ff    	lea    -0x227b(%ebx),%eax
    22a2:	50                   	push   %eax
    22a3:	8d 85 e4 7f ff ff    	lea    -0x801c(%ebp),%eax
    22a9:	50                   	push   %eax
    22aa:	e8 b1 e7 ff ff       	call   a60 <__isoc99_sscanf@plt>
    22af:	83 c4 20             	add    $0x20,%esp
    22b2:	8b 85 b4 5f ff ff    	mov    -0xa04c(%ebp),%eax
    22b8:	3d c8 00 00 00       	cmp    $0xc8,%eax
    22bd:	0f 84 d8 00 00 00    	je     239b <submitr+0x68b>
    22c3:	8b 85 b4 5f ff ff    	mov    -0xa04c(%ebp),%eax
    22c9:	8d 95 e4 df ff ff    	lea    -0x201c(%ebp),%edx
    22cf:	52                   	push   %edx
    22d0:	50                   	push   %eax
    22d1:	8d 83 98 dd ff ff    	lea    -0x2268(%ebx),%eax
    22d7:	50                   	push   %eax
    22d8:	ff b5 8c 5f ff ff    	pushl  -0xa074(%ebp)
    22de:	e8 ad e7 ff ff       	call   a90 <sprintf@plt>
    22e3:	83 c4 10             	add    $0x10,%esp
    22e6:	83 ec 0c             	sub    $0xc,%esp
    22e9:	ff b5 b8 5f ff ff    	pushl  -0xa048(%ebp)
    22ef:	e8 ec e7 ff ff       	call   ae0 <close@plt>
    22f4:	83 c4 10             	add    $0x10,%esp
    22f7:	b8 ff ff ff ff       	mov    $0xffffffff,%eax
    22fc:	e9 ad 01 00 00       	jmp    24ae <submitr+0x79e>
    2301:	83 ec 04             	sub    $0x4,%esp
    2304:	68 00 20 00 00       	push   $0x2000
    2309:	8d 85 e4 7f ff ff    	lea    -0x801c(%ebp),%eax
    230f:	50                   	push   %eax
    2310:	8d 85 d8 5f ff ff    	lea    -0xa028(%ebp),%eax
    2316:	50                   	push   %eax
    2317:	e8 55 f7 ff ff       	call   1a71 <rio_readlineb>
    231c:	83 c4 10             	add    $0x10,%esp
    231f:	85 c0                	test   %eax,%eax
    2321:	7f 78                	jg     239b <submitr+0x68b>
    2323:	8b 85 8c 5f ff ff    	mov    -0xa074(%ebp),%eax
    2329:	c7 00 45 72 72 6f    	movl   $0x6f727245,(%eax)
    232f:	c7 40 04 72 3a 20 43 	movl   $0x43203a72,0x4(%eax)
    2336:	c7 40 08 6c 69 65 6e 	movl   $0x6e65696c,0x8(%eax)
    233d:	c7 40 0c 74 20 75 6e 	movl   $0x6e752074,0xc(%eax)
    2344:	c7 40 10 61 62 6c 65 	movl   $0x656c6261,0x10(%eax)
    234b:	c7 40 14 20 74 6f 20 	movl   $0x206f7420,0x14(%eax)
    2352:	c7 40 18 72 65 61 64 	movl   $0x64616572,0x18(%eax)
    2359:	c7 40 1c 20 68 65 61 	movl   $0x61656820,0x1c(%eax)
    2360:	c7 40 20 64 65 72 73 	movl   $0x73726564,0x20(%eax)
    2367:	c7 40 24 20 66 72 6f 	movl   $0x6f726620,0x24(%eax)
    236e:	c7 40 28 6d 20 73 65 	movl   $0x6573206d,0x28(%eax)
    2375:	c7 40 2c 72 76 65 72 	movl   $0x72657672,0x2c(%eax)
    237c:	c6 40 30 00          	movb   $0x0,0x30(%eax)
    2380:	83 ec 0c             	sub    $0xc,%esp
    2383:	ff b5 b8 5f ff ff    	pushl  -0xa048(%ebp)
    2389:	e8 52 e7 ff ff       	call   ae0 <close@plt>
    238e:	83 c4 10             	add    $0x10,%esp
    2391:	b8 ff ff ff ff       	mov    $0xffffffff,%eax
    2396:	e9 13 01 00 00       	jmp    24ae <submitr+0x79e>
    239b:	83 ec 08             	sub    $0x8,%esp
    239e:	8d 83 c5 dd ff ff    	lea    -0x223b(%ebx),%eax
    23a4:	50                   	push   %eax
    23a5:	8d 85 e4 7f ff ff    	lea    -0x801c(%ebp),%eax
    23ab:	50                   	push   %eax
    23ac:	e8 5f e5 ff ff       	call   910 <strcmp@plt>
    23b1:	83 c4 10             	add    $0x10,%esp
    23b4:	85 c0                	test   %eax,%eax
    23b6:	0f 85 45 ff ff ff    	jne    2301 <submitr+0x5f1>
    23bc:	83 ec 04             	sub    $0x4,%esp
    23bf:	68 00 20 00 00       	push   $0x2000
    23c4:	8d 85 e4 7f ff ff    	lea    -0x801c(%ebp),%eax
    23ca:	50                   	push   %eax
    23cb:	8d 85 d8 5f ff ff    	lea    -0xa028(%ebp),%eax
    23d1:	50                   	push   %eax
    23d2:	e8 9a f6 ff ff       	call   1a71 <rio_readlineb>
    23d7:	83 c4 10             	add    $0x10,%esp
    23da:	85 c0                	test   %eax,%eax
    23dc:	7f 7f                	jg     245d <submitr+0x74d>
    23de:	8b 85 8c 5f ff ff    	mov    -0xa074(%ebp),%eax
    23e4:	c7 00 45 72 72 6f    	movl   $0x6f727245,(%eax)
    23ea:	c7 40 04 72 3a 20 43 	movl   $0x43203a72,0x4(%eax)
    23f1:	c7 40 08 6c 69 65 6e 	movl   $0x6e65696c,0x8(%eax)
    23f8:	c7 40 0c 74 20 75 6e 	movl   $0x6e752074,0xc(%eax)
    23ff:	c7 40 10 61 62 6c 65 	movl   $0x656c6261,0x10(%eax)
    2406:	c7 40 14 20 74 6f 20 	movl   $0x206f7420,0x14(%eax)
    240d:	c7 40 18 72 65 61 64 	movl   $0x64616572,0x18(%eax)
    2414:	c7 40 1c 20 73 74 61 	movl   $0x61747320,0x1c(%eax)
    241b:	c7 40 20 74 75 73 20 	movl   $0x20737574,0x20(%eax)
    2422:	c7 40 24 6d 65 73 73 	movl   $0x7373656d,0x24(%eax)
    2429:	c7 40 28 61 67 65 20 	movl   $0x20656761,0x28(%eax)
    2430:	c7 40 2c 66 72 6f 6d 	movl   $0x6d6f7266,0x2c(%eax)
    2437:	c7 40 30 20 73 65 72 	movl   $0x72657320,0x30(%eax)
    243e:	c7 40 34 76 65 72 00 	movl   $0x726576,0x34(%eax)
    2445:	83 ec 0c             	sub    $0xc,%esp
    2448:	ff b5 b8 5f ff ff    	pushl  -0xa048(%ebp)
    244e:	e8 8d e6 ff ff       	call   ae0 <close@plt>
    2453:	83 c4 10             	add    $0x10,%esp
    2456:	b8 ff ff ff ff       	mov    $0xffffffff,%eax
    245b:	eb 51                	jmp    24ae <submitr+0x79e>
    245d:	83 ec 08             	sub    $0x8,%esp
    2460:	8d 85 e4 7f ff ff    	lea    -0x801c(%ebp),%eax
    2466:	50                   	push   %eax
    2467:	ff b5 8c 5f ff ff    	pushl  -0xa074(%ebp)
    246d:	e8 6e e5 ff ff       	call   9e0 <strcpy@plt>
    2472:	83 c4 10             	add    $0x10,%esp
    2475:	83 ec 0c             	sub    $0xc,%esp
    2478:	ff b5 b8 5f ff ff    	pushl  -0xa048(%ebp)
    247e:	e8 5d e6 ff ff       	call   ae0 <close@plt>
    2483:	83 c4 10             	add    $0x10,%esp
    2486:	83 ec 08             	sub    $0x8,%esp
    2489:	8d 83 c8 dd ff ff    	lea    -0x2238(%ebx),%eax
    248f:	50                   	push   %eax
    2490:	ff b5 8c 5f ff ff    	pushl  -0xa074(%ebp)
    2496:	e8 75 e4 ff ff       	call   910 <strcmp@plt>
    249b:	83 c4 10             	add    $0x10,%esp
    249e:	85 c0                	test   %eax,%eax
    24a0:	75 07                	jne    24a9 <submitr+0x799>
    24a2:	b8 00 00 00 00       	mov    $0x0,%eax
    24a7:	eb 05                	jmp    24ae <submitr+0x79e>
    24a9:	b8 ff ff ff ff       	mov    $0xffffffff,%eax
    24ae:	8b 7d e4             	mov    -0x1c(%ebp),%edi
    24b1:	65 33 3d 14 00 00 00 	xor    %gs:0x14,%edi
    24b8:	74 05                	je     24bf <submitr+0x7af>
    24ba:	e8 91 03 00 00       	call   2850 <__stack_chk_fail_local>
    24bf:	8d 65 f4             	lea    -0xc(%ebp),%esp
    24c2:	5b                   	pop    %ebx
    24c3:	5e                   	pop    %esi
    24c4:	5f                   	pop    %edi
    24c5:	5d                   	pop    %ebp
    24c6:	c3                   	ret    

000024c7 <init_timeout>:
    24c7:	55                   	push   %ebp
    24c8:	89 e5                	mov    %esp,%ebp
    24ca:	53                   	push   %ebx
    24cb:	83 ec 04             	sub    $0x4,%esp
    24ce:	e8 7d e6 ff ff       	call   b50 <__x86.get_pc_thunk.bx>
    24d3:	81 c3 85 2a 00 00    	add    $0x2a85,%ebx
    24d9:	83 7d 08 00          	cmpl   $0x0,0x8(%ebp)
    24dd:	74 32                	je     2511 <init_timeout+0x4a>
    24df:	83 7d 08 00          	cmpl   $0x0,0x8(%ebp)
    24e3:	79 07                	jns    24ec <init_timeout+0x25>
    24e5:	c7 45 08 00 00 00 00 	movl   $0x0,0x8(%ebp)
    24ec:	83 ec 08             	sub    $0x8,%esp
    24ef:	8d 83 d8 c9 ff ff    	lea    -0x3628(%ebx),%eax
    24f5:	50                   	push   %eax
    24f6:	6a 0e                	push   $0xe
    24f8:	e8 83 e4 ff ff       	call   980 <signal@plt>
    24fd:	83 c4 10             	add    $0x10,%esp
    2500:	8b 45 08             	mov    0x8(%ebp),%eax
    2503:	83 ec 0c             	sub    $0xc,%esp
    2506:	50                   	push   %eax
    2507:	e8 94 e4 ff ff       	call   9a0 <alarm@plt>
    250c:	83 c4 10             	add    $0x10,%esp
    250f:	eb 01                	jmp    2512 <init_timeout+0x4b>
    2511:	90                   	nop
    2512:	8b 5d fc             	mov    -0x4(%ebp),%ebx
    2515:	c9                   	leave  
    2516:	c3                   	ret    

00002517 <init_driver>:
    2517:	55                   	push   %ebp
    2518:	89 e5                	mov    %esp,%ebp
    251a:	53                   	push   %ebx
    251b:	83 ec 44             	sub    $0x44,%esp
    251e:	e8 2d e6 ff ff       	call   b50 <__x86.get_pc_thunk.bx>
    2523:	81 c3 35 2a 00 00    	add    $0x2a35,%ebx
    2529:	8b 45 08             	mov    0x8(%ebp),%eax
    252c:	89 45 c4             	mov    %eax,-0x3c(%ebp)
    252f:	65 a1 14 00 00 00    	mov    %gs:0x14,%eax
    2535:	89 45 f4             	mov    %eax,-0xc(%ebp)
    2538:	31 c0                	xor    %eax,%eax
    253a:	8d 83 cb dd ff ff    	lea    -0x2235(%ebx),%eax
    2540:	89 45 d4             	mov    %eax,-0x2c(%ebp)
    2543:	c7 45 d8 6e 3b 00 00 	movl   $0x3b6e,-0x28(%ebp)
    254a:	83 ec 08             	sub    $0x8,%esp
    254d:	6a 01                	push   $0x1
    254f:	6a 0d                	push   $0xd
    2551:	e8 2a e4 ff ff       	call   980 <signal@plt>
    2556:	83 c4 10             	add    $0x10,%esp
    2559:	83 ec 08             	sub    $0x8,%esp
    255c:	6a 01                	push   $0x1
    255e:	6a 1d                	push   $0x1d
    2560:	e8 1b e4 ff ff       	call   980 <signal@plt>
    2565:	83 c4 10             	add    $0x10,%esp
    2568:	83 ec 08             	sub    $0x8,%esp
    256b:	6a 01                	push   $0x1
    256d:	6a 1d                	push   $0x1d
    256f:	e8 0c e4 ff ff       	call   980 <signal@plt>
    2574:	83 c4 10             	add    $0x10,%esp
    2577:	83 ec 04             	sub    $0x4,%esp
    257a:	6a 00                	push   $0x0
    257c:	6a 01                	push   $0x1
    257e:	6a 02                	push   $0x2
    2580:	e8 2b e5 ff ff       	call   ab0 <socket@plt>
    2585:	83 c4 10             	add    $0x10,%esp
    2588:	89 45 dc             	mov    %eax,-0x24(%ebp)
    258b:	83 7d dc 00          	cmpl   $0x0,-0x24(%ebp)
    258f:	79 51                	jns    25e2 <init_driver+0xcb>
    2591:	8b 45 c4             	mov    -0x3c(%ebp),%eax
    2594:	c7 00 45 72 72 6f    	movl   $0x6f727245,(%eax)
    259a:	c7 40 04 72 3a 20 43 	movl   $0x43203a72,0x4(%eax)
    25a1:	c7 40 08 6c 69 65 6e 	movl   $0x6e65696c,0x8(%eax)
    25a8:	c7 40 0c 74 20 75 6e 	movl   $0x6e752074,0xc(%eax)
    25af:	c7 40 10 61 62 6c 65 	movl   $0x656c6261,0x10(%eax)
    25b6:	c7 40 14 20 74 6f 20 	movl   $0x206f7420,0x14(%eax)
    25bd:	c7 40 18 63 72 65 61 	movl   $0x61657263,0x18(%eax)
    25c4:	c7 40 1c 74 65 20 73 	movl   $0x73206574,0x1c(%eax)
    25cb:	c7 40 20 6f 63 6b 65 	movl   $0x656b636f,0x20(%eax)
    25d2:	66 c7 40 24 74 00    	movw   $0x74,0x24(%eax)
    25d8:	b8 ff ff ff ff       	mov    $0xffffffff,%eax
    25dd:	e9 3d 01 00 00       	jmp    271f <init_driver+0x208>
    25e2:	83 ec 0c             	sub    $0xc,%esp
    25e5:	ff 75 d4             	pushl  -0x2c(%ebp)
    25e8:	e8 d3 e4 ff ff       	call   ac0 <gethostbyname@plt>
    25ed:	83 c4 10             	add    $0x10,%esp
    25f0:	89 45 e0             	mov    %eax,-0x20(%ebp)
    25f3:	83 7d e0 00          	cmpl   $0x0,-0x20(%ebp)
    25f7:	75 71                	jne    266a <init_driver+0x153>
    25f9:	8b 45 c4             	mov    -0x3c(%ebp),%eax
    25fc:	c7 00 45 72 72 6f    	movl   $0x6f727245,(%eax)
    2602:	c7 40 04 72 3a 20 44 	movl   $0x44203a72,0x4(%eax)
    2609:	c7 40 08 4e 53 20 69 	movl   $0x6920534e,0x8(%eax)
    2610:	c7 40 0c 73 20 75 6e 	movl   $0x6e752073,0xc(%eax)
    2617:	c7 40 10 61 62 6c 65 	movl   $0x656c6261,0x10(%eax)
    261e:	c7 40 14 20 74 6f 20 	movl   $0x206f7420,0x14(%eax)
    2625:	c7 40 18 72 65 73 6f 	movl   $0x6f736572,0x18(%eax)
    262c:	c7 40 1c 6c 76 65 20 	movl   $0x2065766c,0x1c(%eax)
    2633:	c7 40 20 73 65 72 76 	movl   $0x76726573,0x20(%eax)
    263a:	c7 40 24 65 72 20 61 	movl   $0x61207265,0x24(%eax)
    2641:	c7 40 28 64 64 72 65 	movl   $0x65726464,0x28(%eax)
    2648:	66 c7 40 2c 73 73    	movw   $0x7373,0x2c(%eax)
    264e:	c6 40 2e 00          	movb   $0x0,0x2e(%eax)
    2652:	83 ec 0c             	sub    $0xc,%esp
    2655:	ff 75 dc             	pushl  -0x24(%ebp)
    2658:	e8 83 e4 ff ff       	call   ae0 <close@plt>
    265d:	83 c4 10             	add    $0x10,%esp
    2660:	b8 ff ff ff ff       	mov    $0xffffffff,%eax
    2665:	e9 b5 00 00 00       	jmp    271f <init_driver+0x208>
    266a:	83 ec 08             	sub    $0x8,%esp
    266d:	6a 10                	push   $0x10
    266f:	8d 45 e4             	lea    -0x1c(%ebp),%eax
    2672:	50                   	push   %eax
    2673:	e8 e8 e2 ff ff       	call   960 <bzero@plt>
    2678:	83 c4 10             	add    $0x10,%esp
    267b:	66 c7 45 e4 02 00    	movw   $0x2,-0x1c(%ebp)
    2681:	8b 45 e0             	mov    -0x20(%ebp),%eax
    2684:	8b 40 0c             	mov    0xc(%eax),%eax
    2687:	89 c2                	mov    %eax,%edx
    2689:	8b 45 e0             	mov    -0x20(%ebp),%eax
    268c:	8b 40 10             	mov    0x10(%eax),%eax
    268f:	8b 00                	mov    (%eax),%eax
    2691:	83 ec 04             	sub    $0x4,%esp
    2694:	52                   	push   %edx
    2695:	8d 55 e4             	lea    -0x1c(%ebp),%edx
    2698:	83 c2 04             	add    $0x4,%edx
    269b:	52                   	push   %edx
    269c:	50                   	push   %eax
    269d:	e8 2e e3 ff ff       	call   9d0 <bcopy@plt>
    26a2:	83 c4 10             	add    $0x10,%esp
    26a5:	8b 45 d8             	mov    -0x28(%ebp),%eax
    26a8:	0f b7 c0             	movzwl %ax,%eax
    26ab:	83 ec 0c             	sub    $0xc,%esp
    26ae:	50                   	push   %eax
    26af:	e8 0c e3 ff ff       	call   9c0 <htons@plt>
    26b4:	83 c4 10             	add    $0x10,%esp
    26b7:	66 89 45 e6          	mov    %ax,-0x1a(%ebp)
    26bb:	83 ec 04             	sub    $0x4,%esp
    26be:	6a 10                	push   $0x10
    26c0:	8d 45 e4             	lea    -0x1c(%ebp),%eax
    26c3:	50                   	push   %eax
    26c4:	ff 75 dc             	pushl  -0x24(%ebp)
    26c7:	e8 04 e4 ff ff       	call   ad0 <connect@plt>
    26cc:	83 c4 10             	add    $0x10,%esp
    26cf:	85 c0                	test   %eax,%eax
    26d1:	79 2d                	jns    2700 <init_driver+0x1e9>
    26d3:	83 ec 04             	sub    $0x4,%esp
    26d6:	ff 75 d4             	pushl  -0x2c(%ebp)
    26d9:	8d 83 d8 dd ff ff    	lea    -0x2228(%ebx),%eax
    26df:	50                   	push   %eax
    26e0:	ff 75 c4             	pushl  -0x3c(%ebp)
    26e3:	e8 a8 e3 ff ff       	call   a90 <sprintf@plt>
    26e8:	83 c4 10             	add    $0x10,%esp
    26eb:	83 ec 0c             	sub    $0xc,%esp
    26ee:	ff 75 dc             	pushl  -0x24(%ebp)
    26f1:	e8 ea e3 ff ff       	call   ae0 <close@plt>
    26f6:	83 c4 10             	add    $0x10,%esp
    26f9:	b8 ff ff ff ff       	mov    $0xffffffff,%eax
    26fe:	eb 1f                	jmp    271f <init_driver+0x208>
    2700:	83 ec 0c             	sub    $0xc,%esp
    2703:	ff 75 dc             	pushl  -0x24(%ebp)
    2706:	e8 d5 e3 ff ff       	call   ae0 <close@plt>
    270b:	83 c4 10             	add    $0x10,%esp
    270e:	8b 45 c4             	mov    -0x3c(%ebp),%eax
    2711:	66 c7 00 4f 4b       	movw   $0x4b4f,(%eax)
    2716:	c6 40 02 00          	movb   $0x0,0x2(%eax)
    271a:	b8 00 00 00 00       	mov    $0x0,%eax
    271f:	8b 4d f4             	mov    -0xc(%ebp),%ecx
    2722:	65 33 0d 14 00 00 00 	xor    %gs:0x14,%ecx
    2729:	74 05                	je     2730 <init_driver+0x219>
    272b:	e8 20 01 00 00       	call   2850 <__stack_chk_fail_local>
    2730:	8b 5d fc             	mov    -0x4(%ebp),%ebx
    2733:	c9                   	leave  
    2734:	c3                   	ret    

00002735 <driver_post>:
    2735:	55                   	push   %ebp
    2736:	89 e5                	mov    %esp,%ebp
    2738:	53                   	push   %ebx
    2739:	83 ec 14             	sub    $0x14,%esp
    273c:	e8 ab ec ff ff       	call   13ec <__x86.get_pc_thunk.ax>
    2741:	05 17 28 00 00       	add    $0x2817,%eax
    2746:	83 7d 14 00          	cmpl   $0x0,0x14(%ebp)
    274a:	74 2a                	je     2776 <driver_post+0x41>
    274c:	83 ec 08             	sub    $0x8,%esp
    274f:	ff 75 10             	pushl  0x10(%ebp)
    2752:	8d 90 fe dd ff ff    	lea    -0x2202(%eax),%edx
    2758:	52                   	push   %edx
    2759:	89 c3                	mov    %eax,%ebx
    275b:	e8 d0 e1 ff ff       	call   930 <printf@plt>
    2760:	83 c4 10             	add    $0x10,%esp
    2763:	8b 45 18             	mov    0x18(%ebp),%eax
    2766:	66 c7 00 4f 4b       	movw   $0x4b4f,(%eax)
    276b:	c6 40 02 00          	movb   $0x0,0x2(%eax)
    276f:	b8 00 00 00 00       	mov    $0x0,%eax
    2774:	eb 5a                	jmp    27d0 <driver_post+0x9b>
    2776:	83 7d 08 00          	cmpl   $0x0,0x8(%ebp)
    277a:	74 43                	je     27bf <driver_post+0x8a>
    277c:	8b 55 08             	mov    0x8(%ebp),%edx
    277f:	0f b6 12             	movzbl (%edx),%edx
    2782:	0f b6 d2             	movzbl %dl,%edx
    2785:	85 d2                	test   %edx,%edx
    2787:	74 36                	je     27bf <driver_post+0x8a>
    2789:	ff 75 18             	pushl  0x18(%ebp)
    278c:	ff 75 10             	pushl  0x10(%ebp)
    278f:	8d 90 15 de ff ff    	lea    -0x21eb(%eax),%edx
    2795:	52                   	push   %edx
    2796:	ff 75 0c             	pushl  0xc(%ebp)
    2799:	ff 75 08             	pushl  0x8(%ebp)
    279c:	8d 90 1d de ff ff    	lea    -0x21e3(%eax),%edx
    27a2:	52                   	push   %edx
    27a3:	68 6e 3b 00 00       	push   $0x3b6e
    27a8:	8d 80 cb dd ff ff    	lea    -0x2235(%eax),%eax
    27ae:	50                   	push   %eax
    27af:	e8 5c f5 ff ff       	call   1d10 <submitr>
    27b4:	83 c4 20             	add    $0x20,%esp
    27b7:	89 45 f4             	mov    %eax,-0xc(%ebp)
    27ba:	8b 45 f4             	mov    -0xc(%ebp),%eax
    27bd:	eb 11                	jmp    27d0 <driver_post+0x9b>
    27bf:	8b 45 18             	mov    0x18(%ebp),%eax
    27c2:	66 c7 00 4f 4b       	movw   $0x4b4f,(%eax)
    27c7:	c6 40 02 00          	movb   $0x0,0x2(%eax)
    27cb:	b8 00 00 00 00       	mov    $0x0,%eax
    27d0:	8b 5d fc             	mov    -0x4(%ebp),%ebx
    27d3:	c9                   	leave  
    27d4:	c3                   	ret    
    27d5:	66 90                	xchg   %ax,%ax
    27d7:	66 90                	xchg   %ax,%ax
    27d9:	66 90                	xchg   %ax,%ax
    27db:	66 90                	xchg   %ax,%ax
    27dd:	66 90                	xchg   %ax,%ax
    27df:	90                   	nop

000027e0 <__libc_csu_init>:
    27e0:	55                   	push   %ebp
    27e1:	57                   	push   %edi
    27e2:	56                   	push   %esi
    27e3:	53                   	push   %ebx
    27e4:	e8 67 e3 ff ff       	call   b50 <__x86.get_pc_thunk.bx>
    27e9:	81 c3 6f 27 00 00    	add    $0x276f,%ebx
    27ef:	83 ec 0c             	sub    $0xc,%esp
    27f2:	8b 6c 24 28          	mov    0x28(%esp),%ebp
    27f6:	8d b3 04 ff ff ff    	lea    -0xfc(%ebx),%esi
    27fc:	e8 cf e0 ff ff       	call   8d0 <_init>
    2801:	8d 83 00 ff ff ff    	lea    -0x100(%ebx),%eax
    2807:	29 c6                	sub    %eax,%esi
    2809:	c1 fe 02             	sar    $0x2,%esi
    280c:	85 f6                	test   %esi,%esi
    280e:	74 25                	je     2835 <__libc_csu_init+0x55>
    2810:	31 ff                	xor    %edi,%edi
    2812:	8d b6 00 00 00 00    	lea    0x0(%esi),%esi
    2818:	83 ec 04             	sub    $0x4,%esp
    281b:	55                   	push   %ebp
    281c:	ff 74 24 2c          	pushl  0x2c(%esp)
    2820:	ff 74 24 2c          	pushl  0x2c(%esp)
    2824:	ff 94 bb 00 ff ff ff 	call   *-0x100(%ebx,%edi,4)
    282b:	83 c7 01             	add    $0x1,%edi
    282e:	83 c4 10             	add    $0x10,%esp
    2831:	39 fe                	cmp    %edi,%esi
    2833:	75 e3                	jne    2818 <__libc_csu_init+0x38>
    2835:	83 c4 0c             	add    $0xc,%esp
    2838:	5b                   	pop    %ebx
    2839:	5e                   	pop    %esi
    283a:	5f                   	pop    %edi
    283b:	5d                   	pop    %ebp
    283c:	c3                   	ret    
    283d:	8d 76 00             	lea    0x0(%esi),%esi

00002840 <__libc_csu_fini>:
    2840:	f3 c3                	repz ret 
    2842:	66 90                	xchg   %ax,%ax
    2844:	66 90                	xchg   %ax,%ax
    2846:	66 90                	xchg   %ax,%ax
    2848:	66 90                	xchg   %ax,%ax
    284a:	66 90                	xchg   %ax,%ax
    284c:	66 90                	xchg   %ax,%ax
    284e:	66 90                	xchg   %ax,%ax

00002850 <__stack_chk_fail_local>:
    2850:	53                   	push   %ebx
    2851:	e8 fa e2 ff ff       	call   b50 <__x86.get_pc_thunk.bx>
    2856:	81 c3 02 27 00 00    	add    $0x2702,%ebx
    285c:	83 ec 08             	sub    $0x8,%esp
    285f:	e8 4c e1 ff ff       	call   9b0 <__stack_chk_fail@plt>

Disassembly of section .fini:

00002864 <_fini>:
    2864:	53                   	push   %ebx
    2865:	83 ec 08             	sub    $0x8,%esp
    2868:	e8 e3 e2 ff ff       	call   b50 <__x86.get_pc_thunk.bx>
    286d:	81 c3 eb 26 00 00    	add    $0x26eb,%ebx
    2873:	83 c4 08             	add    $0x8,%esp
    2876:	5b                   	pop    %ebx
    2877:	c3                   	ret    
